
output/out.elf:     file format elf32-lm32

Disassembly of section .boot:

02000000 <_reset_handler>:
char str2[100];


/* User functions */
void write_led(volatile unsigned int led)		// Function to turn on the leds 
{
 2000000:	98 00 00 00 	xor r0,r0,r0
	return EE_UART_OK;
}

/* This functions sets rx callback */
int EE_hal_uart_set_rx_callback(EE_uart_st* usp, EE_ISR_callback isr_rx_callback)
{
 2000004:	d0 00 00 00 	wcsr IE,r0
/******************************************************************************/
/*                       Public Global Functions                              */
/******************************************************************************/
/* This function is used to turn off I2C controller */
int EE_hal_i2c_disable(OCI2CMDev_t* i2cc)
{
 2000008:	d0 20 00 00 	wcsr IM,r0
/******************************************************************************/
/*                             Buffer Management                              */
/******************************************************************************/

int EE_buffer_init(EE_buffer *buf, int msgsize, int bufsize, EE_UINT8 *vet)
{
 200000c:	78 01 02 00 	mvhi r1,0x200
 2000010:	38 21 00 00 	ori r1,r1,0x0
 2000014:	d0 e1 00 00 	wcsr EBA,r1
 2000018:	f8 00 00 3a 	calli 2000100 <_crt0>
 200001c:	34 00 00 00 	nop

02000020 <_breakpoint_handler>:
 2000020:	91 20 38 00 	rcsr r7,DEBA
 2000024:	34 e7 00 20 	addi r7,r7,32
 2000028:	c0 e0 00 00 	b r7
 200002c:	34 00 00 00 	nop
 2000030:	34 00 00 00 	nop
 2000034:	34 00 00 00 	nop
 2000038:	34 00 00 00 	nop
 200003c:	34 00 00 00 	nop

02000040 <_instruction_bus_error_handler>:
 2000040:	91 20 38 00 	rcsr r7,DEBA
 2000044:	34 e7 00 40 	addi r7,r7,64
 2000048:	c0 e0 00 00 	b r7
 200004c:	34 00 00 00 	nop
 2000050:	34 00 00 00 	nop
 2000054:	34 00 00 00 	nop
 2000058:	34 00 00 00 	nop
 200005c:	34 00 00 00 	nop

02000060 <_watchpoint_handler>:
 2000060:	91 20 38 00 	rcsr r7,DEBA
 2000064:	34 e7 00 60 	addi r7,r7,96
 2000068:	c0 e0 00 00 	b r7
 200006c:	34 00 00 00 	nop
 2000070:	34 00 00 00 	nop
 2000074:	34 00 00 00 	nop
 2000078:	34 00 00 00 	nop
 200007c:	34 00 00 00 	nop

02000080 <_data_bus_error_handler>:
 2000080:	91 20 38 00 	rcsr r7,DEBA
 2000084:	34 e7 00 80 	addi r7,r7,128
 2000088:	c0 e0 00 00 	b r7
 200008c:	34 00 00 00 	nop
 2000090:	34 00 00 00 	nop
 2000094:	34 00 00 00 	nop
 2000098:	34 00 00 00 	nop
 200009c:	34 00 00 00 	nop

020000a0 <_divide_by_zero_handler>:
 20000a0:	91 20 38 00 	rcsr r7,DEBA
 20000a4:	34 e7 00 a0 	addi r7,r7,160
 20000a8:	c0 e0 00 00 	b r7
 20000ac:	34 00 00 00 	nop
 20000b0:	34 00 00 00 	nop
 20000b4:	34 00 00 00 	nop
 20000b8:	34 00 00 00 	nop
 20000bc:	34 00 00 00 	nop

020000c0 <_interrupt_handler>:
 20000c0:	5b 9d 00 00 	sw (sp+0),ra
 20000c4:	f8 00 00 21 	calli 2000148 <_save_all>
 20000c8:	34 01 00 02 	mvi r1,2
 20000cc:	f8 00 02 77 	calli 2000aa8 <MicoISRHandler>
 20000d0:	e0 00 00 33 	bi 200019c <_restore_all_and_return>
 20000d4:	34 00 00 00 	nop
 20000d8:	34 00 00 00 	nop
 20000dc:	34 00 00 00 	nop

020000e0 <_system_call_handler>:
 20000e0:	91 20 38 00 	rcsr r7,DEBA
 20000e4:	34 e7 00 e0 	addi r7,r7,224
 20000e8:	c0 e0 00 00 	b r7
 20000ec:	34 00 00 00 	nop
 20000f0:	34 00 00 00 	nop
 20000f4:	34 00 00 00 	nop
 20000f8:	34 00 00 00 	nop
 20000fc:	34 00 00 00 	nop

02000100 <_crt0>:
 2000100:	98 00 00 00 	xor r0,r0,r0
 2000104:	78 1c 02 07 	mvhi sp,0x207
 2000108:	3b 9c ff fc 	ori sp,sp,0xfffc
 200010c:	78 1a 02 01 	mvhi gp,0x201
 2000110:	3b 5a 33 00 	ori gp,gp,0x3300
 2000114:	78 01 02 00 	mvhi r1,0x200
 2000118:	38 21 b3 10 	ori r1,r1,0xb310
 200011c:	78 03 02 00 	mvhi r3,0x200
 2000120:	38 63 b5 c0 	ori r3,r3,0xb5c0

02000124 <.ClearBSS>:
 2000124:	e0 00 00 03 	bi 2000130 <.ClearBSS+0xc>
 2000128:	58 20 00 00 	sw (r1+0),r0
 200012c:	34 21 00 04 	addi r1,r1,4
 2000130:	5c 23 ff fe 	bne r1,r3,2000128 <.ClearBSS+0x4>

02000134 <.CallConstructor>:
 2000134:	34 01 00 00 	mvi r1,0
 2000138:	34 02 00 00 	mvi r2,0
 200013c:	34 03 00 00 	mvi r3,0
 2000140:	f8 00 02 39 	calli 2000a24 <LatticeDDInit>
 2000144:	f8 00 06 79 	calli 2001b28 <_exit>

02000148 <_save_all>:
 2000148:	37 9c ff c4 	addi sp,sp,-60
 200014c:	5b 81 00 04 	sw (sp+4),r1
 2000150:	5b 82 00 08 	sw (sp+8),r2
 2000154:	5b 83 00 0c 	sw (sp+12),r3
 2000158:	5b 84 00 10 	sw (sp+16),r4
 200015c:	5b 85 00 14 	sw (sp+20),r5
 2000160:	5b 86 00 18 	sw (sp+24),r6
 2000164:	5b 87 00 1c 	sw (sp+28),r7
 2000168:	5b 88 00 20 	sw (sp+32),r8
 200016c:	5b 89 00 24 	sw (sp+36),r9
 2000170:	5b 8a 00 28 	sw (sp+40),r10
 2000174:	5b 9e 00 34 	sw (sp+52),ea
 2000178:	5b 9f 00 38 	sw (sp+56),ba
 200017c:	2b 81 00 3c 	lw r1,(sp+60)
 2000180:	5b 81 00 30 	sw (sp+48),r1
 2000184:	bb 80 08 00 	mv r1,sp
 2000188:	34 21 00 3c 	addi r1,r1,60
 200018c:	5b 81 00 2c 	sw (sp+44),r1
 2000190:	98 21 08 00 	xor r1,r1,r1
 2000194:	d0 01 00 00 	wcsr IE,r1
 2000198:	c3 a0 00 00 	ret

0200019c <_restore_all_and_return>:
 200019c:	34 01 00 02 	mvi r1,2
 20001a0:	d0 01 00 00 	wcsr IE,r1
 20001a4:	2b 81 00 04 	lw r1,(sp+4)
 20001a8:	2b 82 00 08 	lw r2,(sp+8)
 20001ac:	2b 83 00 0c 	lw r3,(sp+12)
 20001b0:	2b 84 00 10 	lw r4,(sp+16)
 20001b4:	2b 85 00 14 	lw r5,(sp+20)
 20001b8:	2b 86 00 18 	lw r6,(sp+24)
 20001bc:	2b 87 00 1c 	lw r7,(sp+28)
 20001c0:	2b 88 00 20 	lw r8,(sp+32)
 20001c4:	2b 89 00 24 	lw r9,(sp+36)
 20001c8:	2b 8a 00 28 	lw r10,(sp+40)
 20001cc:	2b 9d 00 30 	lw ra,(sp+48)
 20001d0:	2b 9e 00 34 	lw ea,(sp+52)
 20001d4:	2b 9f 00 38 	lw ba,(sp+56)
 20001d8:	2b 9c 00 2c 	lw sp,(sp+44)
 20001dc:	34 00 00 00 	nop
 20001e0:	c3 c0 00 00 	eret
Disassembly of section .text:

020001e4 <Display_Time>:
   	
   	return 0;
}

int Display_Time(void) 
{
 20001e4:	37 9c ff dc 	addi sp,sp,-36
 20001e8:	5b 8b 00 14 	sw (sp+20),r11
 20001ec:	5b 8c 00 10 	sw (sp+16),r12
 20001f0:	5b 8d 00 0c 	sw (sp+12),r13
 20001f4:	5b 8e 00 08 	sw (sp+8),r14
 20001f8:	5b 9d 00 04 	sw (sp+4),ra
	EE_UINT8 txt[16];
	int ret1, ret2;
	
   	// output values to USART
   	txt[0] = (TimeRead.day / 10) + 48;
 20001fc:	78 0c 02 00 	mvhi r12,0x200
 2000200:	39 8c b5 20 	ori r12,r12,0xb520
   	txt[1] = (TimeRead.day % 10) + 48;
   	txt[2] = '/';
   	txt[3] = (TimeRead.month / 10) + 48;
   	txt[4] = (TimeRead.month % 10) + 48;
   	txt[5] = '/';
   	txt[6] = ((TimeRead.year % 100) / 10) + 48;
 2000204:	41 87 00 00 	lbu r7,(r12+0)
{
	EE_UINT8 txt[16];
	int ret1, ret2;
	
   	// output values to USART
   	txt[0] = (TimeRead.day / 10) + 48;
 2000208:	41 85 00 02 	lbu r5,(r12+2)
   	txt[1] = (TimeRead.day % 10) + 48;
   	txt[2] = '/';
   	txt[3] = (TimeRead.month / 10) + 48;
 200020c:	41 86 00 01 	lbu r6,(r12+1)
   	txt[4] = (TimeRead.month % 10) + 48;
   	txt[5] = '/';
   	txt[6] = ((TimeRead.year % 100) / 10) + 48;
 2000210:	34 04 00 64 	mvi r4,100
 2000214:	c4 e4 20 00 	modu r4,r7,r4
{
	EE_UINT8 txt[16];
	int ret1, ret2;
	
   	// output values to USART
   	txt[0] = (TimeRead.day / 10) + 48;
 2000218:	34 0d 00 0a 	mvi r13,10
   	txt[1] = (TimeRead.day % 10) + 48;
 200021c:	c4 ad 40 00 	modu r8,r5,r13
   	txt[2] = '/';
   	txt[3] = (TimeRead.month / 10) + 48;
   	txt[4] = (TimeRead.month % 10) + 48;
 2000220:	c4 cd 48 00 	modu r9,r6,r13
   	txt[5] = '/';
   	txt[6] = ((TimeRead.year % 100) / 10) + 48;
 2000224:	8c 8d 20 00 	divu r4,r4,r13
   	txt[7] = (TimeRead.year % 10)  + 48;
 2000228:	c4 ed 38 00 	modu r7,r7,r13
{
	EE_UINT8 txt[16];
	int ret1, ret2;
	
   	// output values to USART
   	txt[0] = (TimeRead.day / 10) + 48;
 200022c:	8c ad 28 00 	divu r5,r5,r13
   	txt[1] = (TimeRead.day % 10) + 48;
   	txt[2] = '/';
   	txt[3] = (TimeRead.month / 10) + 48;
 2000230:	8c cd 30 00 	divu r6,r6,r13
	return EE_hal_uart_return_error(& EE_ST_NAME(lc)); }
	
/* User functions (API): */  
#ifdef EE_UART1_NAME_UC
DECLARE_STRUCT_UART(EE_UART1_NAME_UC, EE_UART1_NAME_LC)
DECLARE_FUNC_UART(EE_UART1_NAME_UC, EE_UART1_NAME_LC)
 2000234:	37 8e 00 18 	addi r14,sp,24
 2000238:	78 01 02 00 	mvhi r1,0x200
	int ret1, ret2;
	
   	// output values to USART
   	txt[0] = (TimeRead.day / 10) + 48;
   	txt[1] = (TimeRead.day % 10) + 48;
   	txt[2] = '/';
 200023c:	34 0a 00 2f 	mvi r10,47
{
	EE_UINT8 txt[16];
	int ret1, ret2;
	
   	// output values to USART
   	txt[0] = (TimeRead.day / 10) + 48;
 2000240:	34 a5 00 30 	addi r5,r5,48
   	txt[1] = (TimeRead.day % 10) + 48;
 2000244:	35 08 00 30 	addi r8,r8,48
   	txt[2] = '/';
   	txt[3] = (TimeRead.month / 10) + 48;
 2000248:	34 c6 00 30 	addi r6,r6,48
   	txt[4] = (TimeRead.month % 10) + 48;
 200024c:	35 29 00 30 	addi r9,r9,48
   	txt[5] = '/';
   	txt[6] = ((TimeRead.year % 100) / 10) + 48;
 2000250:	34 84 00 30 	addi r4,r4,48
   	txt[7] = (TimeRead.year % 10)  + 48;
 2000254:	34 e7 00 30 	addi r7,r7,48
   	txt[8] = ' ';
 2000258:	34 0b 00 20 	mvi r11,32
 200025c:	38 21 aa a0 	ori r1,r1,0xaaa0
 2000260:	b9 c0 10 00 	mv r2,r14
 2000264:	34 03 00 09 	mvi r3,9
 2000268:	33 8b 00 20 	sb (sp+32),r11
{
	EE_UINT8 txt[16];
	int ret1, ret2;
	
   	// output values to USART
   	txt[0] = (TimeRead.day / 10) + 48;
 200026c:	33 85 00 18 	sb (sp+24),r5
   	txt[1] = (TimeRead.day % 10) + 48;
 2000270:	33 88 00 19 	sb (sp+25),r8
   	txt[2] = '/';
   	txt[3] = (TimeRead.month / 10) + 48;
 2000274:	33 86 00 1b 	sb (sp+27),r6
   	txt[4] = (TimeRead.month % 10) + 48;
 2000278:	33 89 00 1c 	sb (sp+28),r9
   	txt[5] = '/';
 200027c:	33 8a 00 1d 	sb (sp+29),r10
   	txt[6] = ((TimeRead.year % 100) / 10) + 48;
 2000280:	33 84 00 1e 	sb (sp+30),r4
   	txt[7] = (TimeRead.year % 10)  + 48;
 2000284:	33 87 00 1f 	sb (sp+31),r7
	int ret1, ret2;
	
   	// output values to USART
   	txt[0] = (TimeRead.day / 10) + 48;
   	txt[1] = (TimeRead.day % 10) + 48;
   	txt[2] = '/';
 2000288:	33 8a 00 1a 	sb (sp+26),r10
 200028c:	f8 00 03 36 	calli 2000f64 <EE_hal_uart_write_buffer>
 2000290:	b8 20 58 00 	mv r11,r1
   	txt[5] = '/';
   	txt[6] = ((TimeRead.year % 100) / 10) + 48;
   	txt[7] = (TimeRead.year % 10)  + 48;
   	txt[8] = ' ';
   	ret1 = EE_uart_write_buffer(txt,9);
	if(ret1 < 0) return ret1;
 2000294:	48 01 00 22 	bg r0,r1,200031c <_ftext_rom+0x138>
   	txt[1] = (TimeRead.hours % 10) + 48;
   	txt[2] = ':';
   	txt[3] = (TimeRead.minutes / 10) + 48;
   	txt[4] = (TimeRead.minutes % 10) + 48;
   	txt[5] = ':';
   	txt[6] = (TimeRead.seconds / 10) + 48;
 2000298:	41 86 00 05 	lbu r6,(r12+5)
   	txt[7] = (TimeRead.year % 10)  + 48;
   	txt[8] = ' ';
   	ret1 = EE_uart_write_buffer(txt,9);
	if(ret1 < 0) return ret1;
	
   	txt[0] = (TimeRead.hours / 10) + 48;
 200029c:	41 84 00 03 	lbu r4,(r12+3)
   	txt[1] = (TimeRead.hours % 10) + 48;
   	txt[2] = ':';
   	txt[3] = (TimeRead.minutes / 10) + 48;
 20002a0:	41 85 00 04 	lbu r5,(r12+4)
   	txt[4] = (TimeRead.minutes % 10) + 48;
   	txt[5] = ':';
   	txt[6] = (TimeRead.seconds / 10) + 48;
   	txt[7] = (TimeRead.seconds % 10) + 48;
 20002a4:	c4 cd 48 00 	modu r9,r6,r13
   	txt[8] = ' ';
   	ret1 = EE_uart_write_buffer(txt,9);
	if(ret1 < 0) return ret1;
	
   	txt[0] = (TimeRead.hours / 10) + 48;
   	txt[1] = (TimeRead.hours % 10) + 48;
 20002a8:	c4 8d 38 00 	modu r7,r4,r13
   	txt[2] = ':';
   	txt[3] = (TimeRead.minutes / 10) + 48;
   	txt[4] = (TimeRead.minutes % 10) + 48;
 20002ac:	c4 ad 40 00 	modu r8,r5,r13
   	txt[7] = (TimeRead.year % 10)  + 48;
   	txt[8] = ' ';
   	ret1 = EE_uart_write_buffer(txt,9);
	if(ret1 < 0) return ret1;
	
   	txt[0] = (TimeRead.hours / 10) + 48;
 20002b0:	8c 8d 20 00 	divu r4,r4,r13
   	txt[1] = (TimeRead.hours % 10) + 48;
   	txt[2] = ':';
   	txt[3] = (TimeRead.minutes / 10) + 48;
 20002b4:	8c ad 28 00 	divu r5,r5,r13
   	txt[4] = (TimeRead.minutes % 10) + 48;
   	txt[5] = ':';
   	txt[6] = (TimeRead.seconds / 10) + 48;
 20002b8:	8c cd 30 00 	divu r6,r6,r13
 20002bc:	78 01 02 00 	mvhi r1,0x200
   	ret1 = EE_uart_write_buffer(txt,9);
	if(ret1 < 0) return ret1;
	
   	txt[0] = (TimeRead.hours / 10) + 48;
   	txt[1] = (TimeRead.hours % 10) + 48;
   	txt[2] = ':';
 20002c0:	34 0a 00 3a 	mvi r10,58
   	txt[7] = (TimeRead.year % 10)  + 48;
   	txt[8] = ' ';
   	ret1 = EE_uart_write_buffer(txt,9);
	if(ret1 < 0) return ret1;
	
   	txt[0] = (TimeRead.hours / 10) + 48;
 20002c4:	34 84 00 30 	addi r4,r4,48
   	txt[1] = (TimeRead.hours % 10) + 48;
 20002c8:	34 e7 00 30 	addi r7,r7,48
   	txt[2] = ':';
   	txt[3] = (TimeRead.minutes / 10) + 48;
 20002cc:	34 a5 00 30 	addi r5,r5,48
   	txt[4] = (TimeRead.minutes % 10) + 48;
 20002d0:	35 08 00 30 	addi r8,r8,48
   	txt[5] = ':';
   	txt[6] = (TimeRead.seconds / 10) + 48;
 20002d4:	34 c6 00 30 	addi r6,r6,48
   	txt[7] = (TimeRead.seconds % 10) + 48;
 20002d8:	35 29 00 30 	addi r9,r9,48
 20002dc:	38 21 aa a0 	ori r1,r1,0xaaa0
 20002e0:	b9 c0 10 00 	mv r2,r14
 20002e4:	34 03 00 09 	mvi r3,9
   	txt[7] = (TimeRead.year % 10)  + 48;
   	txt[8] = ' ';
   	ret1 = EE_uart_write_buffer(txt,9);
	if(ret1 < 0) return ret1;
	
   	txt[0] = (TimeRead.hours / 10) + 48;
 20002e8:	33 84 00 18 	sb (sp+24),r4
   	txt[1] = (TimeRead.hours % 10) + 48;
 20002ec:	33 87 00 19 	sb (sp+25),r7
   	txt[2] = ':';
   	txt[3] = (TimeRead.minutes / 10) + 48;
 20002f0:	33 85 00 1b 	sb (sp+27),r5
   	txt[4] = (TimeRead.minutes % 10) + 48;
 20002f4:	33 88 00 1c 	sb (sp+28),r8
   	txt[5] = ':';
 20002f8:	33 8a 00 1d 	sb (sp+29),r10
   	txt[6] = (TimeRead.seconds / 10) + 48;
 20002fc:	33 86 00 1e 	sb (sp+30),r6
   	txt[7] = (TimeRead.seconds % 10) + 48;
 2000300:	33 89 00 1f 	sb (sp+31),r9
   	txt[8] = '\n';
 2000304:	33 8d 00 20 	sb (sp+32),r13
   	ret1 = EE_uart_write_buffer(txt,9);
	if(ret1 < 0) return ret1;
	
   	txt[0] = (TimeRead.hours / 10) + 48;
   	txt[1] = (TimeRead.hours % 10) + 48;
   	txt[2] = ':';
 2000308:	33 8a 00 1a 	sb (sp+26),r10
 200030c:	f8 00 03 16 	calli 2000f64 <EE_hal_uart_write_buffer>
   	txt[7] = (TimeRead.seconds % 10) + 48;
   	txt[8] = '\n';
   	ret2 = EE_uart_write_buffer(txt,9);
	if(ret2 < 0) return ret2;
	
   	return ret1+ret2;
 2000310:	b5 61 58 00 	add r11,r11,r1
   	txt[5] = ':';
   	txt[6] = (TimeRead.seconds / 10) + 48;
   	txt[7] = (TimeRead.seconds % 10) + 48;
   	txt[8] = '\n';
   	ret2 = EE_uart_write_buffer(txt,9);
	if(ret2 < 0) return ret2;
 2000314:	4c 20 00 02 	bge r1,r0,200031c <_ftext_rom+0x138>
 2000318:	b8 20 58 00 	mv r11,r1
	
   	return ret1+ret2;
}
 200031c:	b9 60 08 00 	mv r1,r11
 2000320:	2b 9d 00 04 	lw ra,(sp+4)
 2000324:	2b 8b 00 14 	lw r11,(sp+20)
 2000328:	2b 8c 00 10 	lw r12,(sp+16)
 200032c:	2b 8d 00 0c 	lw r13,(sp+12)
 2000330:	2b 8e 00 08 	lw r14,(sp+8)
 2000334:	37 9c 00 24 	addi sp,sp,36
 2000338:	c3 a0 00 00 	ret

0200033c <rtc_read>:
	
   	return 0;
}

int rtc_read(int * retvalue) 
{
 200033c:	37 9c ff d8 	addi sp,sp,-40
 2000340:	5b 8b 00 28 	sw (sp+40),r11
 2000344:	5b 8c 00 24 	sw (sp+36),r12
 2000348:	5b 8d 00 20 	sw (sp+32),r13
 200034c:	5b 8e 00 1c 	sw (sp+28),r14
 2000350:	5b 8f 00 18 	sw (sp+24),r15
 2000354:	5b 90 00 14 	sw (sp+20),r16
 2000358:	5b 91 00 10 	sw (sp+16),r17
 200035c:	5b 92 00 0c 	sw (sp+12),r18
 2000360:	5b 93 00 08 	sw (sp+8),r19
 2000364:	5b 9d 00 04 	sw (sp+4),ra
#endif //#ifdef __USE_I2C_IRQ__


/* User functions (API) declaration: */  
#ifdef EE_I2C1_NAME_UC
DECLARE_FUNC_I2C(EE_I2C1_NAME_UC, EE_I2C1_NAME_LC)
 2000368:	78 04 02 00 	mvhi r4,0x200
 200036c:	b8 20 98 00 	mv r19,r1
 2000370:	78 01 80 00 	mvhi r1,0x8000
 2000374:	38 21 03 00 	ori r1,r1,0x300
 2000378:	38 84 b4 94 	ori r4,r4,0xb494
 200037c:	34 02 00 a0 	mvi r2,160
 2000380:	34 03 00 02 	mvi r3,2
 2000384:	34 05 00 05 	mvi r5,5
 2000388:	f8 00 04 6c 	calli 2001538 <EE_hal_i2c_read_buffer_polling>
 200038c:	b8 20 90 00 	mv r18,r1
	EE_UINT8 device = 0xA0;
	EE_UINT8 address;
	
	address = 2;											// address in memory
   	retvalue[0] = EE_i2c_read_buffer(device, address, rx_data, 5);	
 2000390:	5a 61 00 00 	sw (r19+0),r1
   	if(retvalue[0]!= EE_I2C_OK)
 2000394:	34 01 00 00 	mvi r1,0
 2000398:	5e 41 00 7e 	bne r18,r1,2000590 <rtc_read+0x254>
   		strcat(str1,str2);
   		print_error((EE_UINT8 *)str1, strlen(str1));	
   		return -4;
   	}
   	
   	byteRead = rx_data[0];		// read seconds byte
 200039c:	78 0b 02 00 	mvhi r11,0x200
 20003a0:	39 6b b4 94 	ori r11,r11,0xb494
   	TimeRead.seconds = (byteRead >> 4)*10 + (byteRead & 0x0F); // transform seconds
   	byteRead = rx_data[1];     	// read minutes byte
   	TimeRead.minutes = (byteRead >> 4)*10 + (byteRead & 0x0F); // transform minutes
   	byteRead = rx_data[2];     	// read hours byte
   	TimeRead.hours = (byteRead >> 4)*10 + (byteRead & 0x0F); // transform hours
    byteRead = rx_data[3];     	// read year/day byte
 20003a4:	41 62 00 03 	lbu r2,(r11+3)
   	TimeRead.day = ((byteRead & 0b00110000) >> 4)*10 + (byteRead & 0x0F); // transform day
   	yearmod4 = (byteRead & 0b11000000) >> 6;   // get year mod 4 from RTC
    byteRead = rx_data[4];     	// read weekday/month byte
 20003a8:	41 70 00 04 	lbu r16,(r11+4)
   		strcat(str1,str2);
   		print_error((EE_UINT8 *)str1, strlen(str1));	
   		return -4;
   	}
   	
   	byteRead = rx_data[0];		// read seconds byte
 20003ac:	41 63 00 00 	lbu r3,(r11+0)
   	TimeRead.seconds = (byteRead >> 4)*10 + (byteRead & 0x0F); // transform seconds
   	byteRead = rx_data[1];     	// read minutes byte
 20003b0:	41 69 00 01 	lbu r9,(r11+1)
   	TimeRead.minutes = (byteRead >> 4)*10 + (byteRead & 0x0F); // transform minutes
   	byteRead = rx_data[2];     	// read hours byte
 20003b4:	41 6a 00 02 	lbu r10,(r11+2)
   	TimeRead.hours = (byteRead >> 4)*10 + (byteRead & 0x0F); // transform hours
    byteRead = rx_data[3];     	// read year/day byte
   	TimeRead.day = ((byteRead & 0b00110000) >> 4)*10 + (byteRead & 0x0F); // transform day
 20003b8:	20 44 00 30 	andi r4,r2,0x30
   	yearmod4 = (byteRead & 0b11000000) >> 6;   // get year mod 4 from RTC
    byteRead = rx_data[4];     	// read weekday/month byte
   	TimeRead.month = ((byteRead & 0b00010000) >> 4)*10 + (byteRead & 0x0F); // transform month
 20003bc:	22 08 00 10 	andi r8,r16,0x10
   		print_error((EE_UINT8 *)str1, strlen(str1));	
   		return -4;
   	}
   	
   	byteRead = rx_data[0];		// read seconds byte
   	TimeRead.seconds = (byteRead >> 4)*10 + (byteRead & 0x0F); // transform seconds
 20003c0:	00 65 00 04 	srui r5,r3,4
   	byteRead = rx_data[1];     	// read minutes byte
   	TimeRead.minutes = (byteRead >> 4)*10 + (byteRead & 0x0F); // transform minutes
 20003c4:	01 26 00 04 	srui r6,r9,4
   	byteRead = rx_data[2];     	// read hours byte
   	TimeRead.hours = (byteRead >> 4)*10 + (byteRead & 0x0F); // transform hours
 20003c8:	01 47 00 04 	srui r7,r10,4
    byteRead = rx_data[3];     	// read year/day byte
   	TimeRead.day = ((byteRead & 0b00110000) >> 4)*10 + (byteRead & 0x0F); // transform day
 20003cc:	14 84 00 04 	sri r4,r4,4
   	yearmod4 = (byteRead & 0b11000000) >> 6;   // get year mod 4 from RTC
    byteRead = rx_data[4];     	// read weekday/month byte
   	TimeRead.month = ((byteRead & 0b00010000) >> 4)*10 + (byteRead & 0x0F); // transform month
 20003d0:	15 08 00 04 	sri r8,r8,4
   		print_error((EE_UINT8 *)str1, strlen(str1));	
   		return -4;
   	}
   	
   	byteRead = rx_data[0];		// read seconds byte
   	TimeRead.seconds = (byteRead >> 4)*10 + (byteRead & 0x0F); // transform seconds
 20003d4:	3c a1 00 03 	sli r1,r5,3
   	byteRead = rx_data[1];     	// read minutes byte
   	TimeRead.minutes = (byteRead >> 4)*10 + (byteRead & 0x0F); // transform minutes
 20003d8:	3c cc 00 03 	sli r12,r6,3
   	byteRead = rx_data[2];     	// read hours byte
   	TimeRead.hours = (byteRead >> 4)*10 + (byteRead & 0x0F); // transform hours
 20003dc:	3c ed 00 03 	sli r13,r7,3
    byteRead = rx_data[3];     	// read year/day byte
   	TimeRead.day = ((byteRead & 0b00110000) >> 4)*10 + (byteRead & 0x0F); // transform day
 20003e0:	3c 8e 00 03 	sli r14,r4,3
   	yearmod4 = (byteRead & 0b11000000) >> 6;   // get year mod 4 from RTC
    byteRead = rx_data[4];     	// read weekday/month byte
   	TimeRead.month = ((byteRead & 0b00010000) >> 4)*10 + (byteRead & 0x0F); // transform month
 20003e4:	3d 0f 00 03 	sli r15,r8,3
   		print_error((EE_UINT8 *)str1, strlen(str1));	
   		return -4;
   	}
   	
   	byteRead = rx_data[0];		// read seconds byte
   	TimeRead.seconds = (byteRead >> 4)*10 + (byteRead & 0x0F); // transform seconds
 20003e8:	b4 a5 28 00 	add r5,r5,r5
   	byteRead = rx_data[1];     	// read minutes byte
   	TimeRead.minutes = (byteRead >> 4)*10 + (byteRead & 0x0F); // transform minutes
 20003ec:	b4 c6 30 00 	add r6,r6,r6
   	byteRead = rx_data[2];     	// read hours byte
   	TimeRead.hours = (byteRead >> 4)*10 + (byteRead & 0x0F); // transform hours
 20003f0:	b4 e7 38 00 	add r7,r7,r7
    byteRead = rx_data[3];     	// read year/day byte
   	TimeRead.day = ((byteRead & 0b00110000) >> 4)*10 + (byteRead & 0x0F); // transform day
 20003f4:	b4 84 20 00 	add r4,r4,r4
   	yearmod4 = (byteRead & 0b11000000) >> 6;   // get year mod 4 from RTC
    byteRead = rx_data[4];     	// read weekday/month byte
   	TimeRead.month = ((byteRead & 0b00010000) >> 4)*10 + (byteRead & 0x0F); // transform month
 20003f8:	b5 08 40 00 	add r8,r8,r8
   		print_error((EE_UINT8 *)str1, strlen(str1));	
   		return -4;
   	}
   	
   	byteRead = rx_data[0];		// read seconds byte
   	TimeRead.seconds = (byteRead >> 4)*10 + (byteRead & 0x0F); // transform seconds
 20003fc:	b4 a1 28 00 	add r5,r5,r1
   	byteRead = rx_data[1];     	// read minutes byte
   	TimeRead.minutes = (byteRead >> 4)*10 + (byteRead & 0x0F); // transform minutes
 2000400:	b4 cc 30 00 	add r6,r6,r12
   	byteRead = rx_data[2];     	// read hours byte
   	TimeRead.hours = (byteRead >> 4)*10 + (byteRead & 0x0F); // transform hours
 2000404:	b4 ed 38 00 	add r7,r7,r13
    byteRead = rx_data[3];     	// read year/day byte
   	TimeRead.day = ((byteRead & 0b00110000) >> 4)*10 + (byteRead & 0x0F); // transform day
 2000408:	b4 8e 20 00 	add r4,r4,r14
   	yearmod4 = (byteRead & 0b11000000) >> 6;   // get year mod 4 from RTC
    byteRead = rx_data[4];     	// read weekday/month byte
   	TimeRead.month = ((byteRead & 0b00010000) >> 4)*10 + (byteRead & 0x0F); // transform month
 200040c:	b5 0f 40 00 	add r8,r8,r15
   		print_error((EE_UINT8 *)str1, strlen(str1));	
   		return -4;
   	}
   	
   	byteRead = rx_data[0];		// read seconds byte
   	TimeRead.seconds = (byteRead >> 4)*10 + (byteRead & 0x0F); // transform seconds
 2000410:	20 63 00 0f 	andi r3,r3,0xf
   	byteRead = rx_data[1];     	// read minutes byte
   	TimeRead.minutes = (byteRead >> 4)*10 + (byteRead & 0x0F); // transform minutes
 2000414:	21 29 00 0f 	andi r9,r9,0xf
   	byteRead = rx_data[2];     	// read hours byte
   	TimeRead.hours = (byteRead >> 4)*10 + (byteRead & 0x0F); // transform hours
 2000418:	21 4a 00 0f 	andi r10,r10,0xf
    byteRead = rx_data[3];     	// read year/day byte
   	TimeRead.day = ((byteRead & 0b00110000) >> 4)*10 + (byteRead & 0x0F); // transform day
   	yearmod4 = (byteRead & 0b11000000) >> 6;   // get year mod 4 from RTC
 200041c:	00 4e 00 06 	srui r14,r2,6
    byteRead = rx_data[4];     	// read weekday/month byte
   	TimeRead.month = ((byteRead & 0b00010000) >> 4)*10 + (byteRead & 0x0F); // transform month
 2000420:	22 0d 00 0f 	andi r13,r16,0xf
   	byteRead = rx_data[1];     	// read minutes byte
   	TimeRead.minutes = (byteRead >> 4)*10 + (byteRead & 0x0F); // transform minutes
   	byteRead = rx_data[2];     	// read hours byte
   	TimeRead.hours = (byteRead >> 4)*10 + (byteRead & 0x0F); // transform hours
    byteRead = rx_data[3];     	// read year/day byte
   	TimeRead.day = ((byteRead & 0b00110000) >> 4)*10 + (byteRead & 0x0F); // transform day
 2000424:	20 42 00 0f 	andi r2,r2,0xf
   		print_error((EE_UINT8 *)str1, strlen(str1));	
   		return -4;
   	}
   	
   	byteRead = rx_data[0];		// read seconds byte
   	TimeRead.seconds = (byteRead >> 4)*10 + (byteRead & 0x0F); // transform seconds
 2000428:	78 0f 02 00 	mvhi r15,0x200
   	TimeRead.minutes = (byteRead >> 4)*10 + (byteRead & 0x0F); // transform minutes
   	byteRead = rx_data[2];     	// read hours byte
   	TimeRead.hours = (byteRead >> 4)*10 + (byteRead & 0x0F); // transform hours
    byteRead = rx_data[3];     	// read year/day byte
   	TimeRead.day = ((byteRead & 0b00110000) >> 4)*10 + (byteRead & 0x0F); // transform day
   	yearmod4 = (byteRead & 0b11000000) >> 6;   // get year mod 4 from RTC
 200042c:	78 0c 02 00 	mvhi r12,0x200
    byteRead = rx_data[4];     	// read weekday/month byte
 2000430:	78 11 02 00 	mvhi r17,0x200
   		print_error((EE_UINT8 *)str1, strlen(str1));	
   		return -4;
   	}
   	
   	byteRead = rx_data[0];		// read seconds byte
   	TimeRead.seconds = (byteRead >> 4)*10 + (byteRead & 0x0F); // transform seconds
 2000434:	39 ef b5 20 	ori r15,r15,0xb520
 2000438:	b4 a3 28 00 	add r5,r5,r3
   	byteRead = rx_data[1];     	// read minutes byte
   	TimeRead.minutes = (byteRead >> 4)*10 + (byteRead & 0x0F); // transform minutes
   	byteRead = rx_data[2];     	// read hours byte
   	TimeRead.hours = (byteRead >> 4)*10 + (byteRead & 0x0F); // transform hours
    byteRead = rx_data[3];     	// read year/day byte
   	TimeRead.day = ((byteRead & 0b00110000) >> 4)*10 + (byteRead & 0x0F); // transform day
 200043c:	b4 82 20 00 	add r4,r4,r2
   	}
   	
   	byteRead = rx_data[0];		// read seconds byte
   	TimeRead.seconds = (byteRead >> 4)*10 + (byteRead & 0x0F); // transform seconds
   	byteRead = rx_data[1];     	// read minutes byte
   	TimeRead.minutes = (byteRead >> 4)*10 + (byteRead & 0x0F); // transform minutes
 2000440:	b4 c9 30 00 	add r6,r6,r9
   	byteRead = rx_data[2];     	// read hours byte
   	TimeRead.hours = (byteRead >> 4)*10 + (byteRead & 0x0F); // transform hours
 2000444:	b4 ea 38 00 	add r7,r7,r10
    byteRead = rx_data[3];     	// read year/day byte
   	TimeRead.day = ((byteRead & 0b00110000) >> 4)*10 + (byteRead & 0x0F); // transform day
   	yearmod4 = (byteRead & 0b11000000) >> 6;   // get year mod 4 from RTC
    byteRead = rx_data[4];     	// read weekday/month byte
   	TimeRead.month = ((byteRead & 0b00010000) >> 4)*10 + (byteRead & 0x0F); // transform month
 2000448:	b5 0d 40 00 	add r8,r8,r13
   	TimeRead.minutes = (byteRead >> 4)*10 + (byteRead & 0x0F); // transform minutes
   	byteRead = rx_data[2];     	// read hours byte
   	TimeRead.hours = (byteRead >> 4)*10 + (byteRead & 0x0F); // transform hours
    byteRead = rx_data[3];     	// read year/day byte
   	TimeRead.day = ((byteRead & 0b00110000) >> 4)*10 + (byteRead & 0x0F); // transform day
   	yearmod4 = (byteRead & 0b11000000) >> 6;   // get year mod 4 from RTC
 200044c:	39 8c b4 2c 	ori r12,r12,0xb42c
    byteRead = rx_data[4];     	// read weekday/month byte
 2000450:	3a 31 b4 2d 	ori r17,r17,0xb42d
 2000454:	78 01 80 00 	mvhi r1,0x8000
 2000458:	34 02 00 a0 	mvi r2,160
   		print_error((EE_UINT8 *)str1, strlen(str1));	
   		return -4;
   	}
   	
   	byteRead = rx_data[0];		// read seconds byte
   	TimeRead.seconds = (byteRead >> 4)*10 + (byteRead & 0x0F); // transform seconds
 200045c:	31 e5 00 05 	sb (r15+5),r5
 2000460:	38 21 03 00 	ori r1,r1,0x300
 2000464:	34 03 00 10 	mvi r3,16
   	byteRead = rx_data[1];     	// read minutes byte
   	TimeRead.minutes = (byteRead >> 4)*10 + (byteRead & 0x0F); // transform minutes
 2000468:	31 e6 00 04 	sb (r15+4),r6
   	byteRead = rx_data[2];     	// read hours byte
   	TimeRead.hours = (byteRead >> 4)*10 + (byteRead & 0x0F); // transform hours
 200046c:	31 e7 00 03 	sb (r15+3),r7
    byteRead = rx_data[3];     	// read year/day byte
   	TimeRead.day = ((byteRead & 0b00110000) >> 4)*10 + (byteRead & 0x0F); // transform day
 2000470:	31 e4 00 02 	sb (r15+2),r4
   	yearmod4 = (byteRead & 0b11000000) >> 6;   // get year mod 4 from RTC
 2000474:	31 8e 00 00 	sb (r12+0),r14
    byteRead = rx_data[4];     	// read weekday/month byte
   	TimeRead.month = ((byteRead & 0b00010000) >> 4)*10 + (byteRead & 0x0F); // transform month
 2000478:	31 e8 00 01 	sb (r15+1),r8
   	byteRead = rx_data[2];     	// read hours byte
   	TimeRead.hours = (byteRead >> 4)*10 + (byteRead & 0x0F); // transform hours
    byteRead = rx_data[3];     	// read year/day byte
   	TimeRead.day = ((byteRead & 0b00110000) >> 4)*10 + (byteRead & 0x0F); // transform day
   	yearmod4 = (byteRead & 0b11000000) >> 6;   // get year mod 4 from RTC
    byteRead = rx_data[4];     	// read weekday/month byte
 200047c:	32 30 00 00 	sb (r17+0),r16
 2000480:	f8 00 03 bc 	calli 2001370 <EE_hal_i2c_read_byte_polling>
   	TimeRead.month = ((byteRead & 0b00010000) >> 4)*10 + (byteRead & 0x0F); // transform month
   	
	address = 0x10;				// address in memory
	
	rx_data[0] = EE_i2c_read_byte(device, address);	
 2000484:	20 21 00 ff 	andi r1,r1,0xff
 2000488:	31 61 00 00 	sb (r11+0),r1
	retvalue[0] = rx_data[0];
 200048c:	5a 61 00 00 	sw (r19+0),r1
   		strcat(str1,str2);
   		print_error((EE_UINT8 *)str1, strlen(str1));	
   		return -5;
   	}
  
    byteRead = rx_data[0];  		// read year
 2000490:	41 65 00 00 	lbu r5,(r11+0)
   	if (yearmod4 != byteRead % 4 )  // check if year is incremented in RTC
 2000494:	41 82 00 00 	lbu r2,(r12+0)
   		strcat(str1,str2);
   		print_error((EE_UINT8 *)str1, strlen(str1));	
   		return -5;
   	}
  
    byteRead = rx_data[0];  		// read year
 2000498:	32 25 00 00 	sb (r17+0),r5
   	if (yearmod4 != byteRead % 4 )  // check if year is incremented in RTC
 200049c:	20 a1 00 03 	andi r1,r5,0x3
 20004a0:	5c 41 00 10 	bne r2,r1,20004e0 <rtc_read+0x1a4>
	   		print_error((EE_UINT8 *)str1, strlen(str1));		
	   		return -6;
   		}
    	
   	}
   	TimeRead.year = byteRead;
 20004a4:	42 31 00 00 	lbu r17,(r17+0)
 20004a8:	34 01 00 00 	mvi r1,0
 20004ac:	31 f1 00 00 	sb (r15+0),r17
   	
   	return 0;
}
 20004b0:	2b 9d 00 04 	lw ra,(sp+4)
 20004b4:	2b 8b 00 28 	lw r11,(sp+40)
 20004b8:	2b 8c 00 24 	lw r12,(sp+36)
 20004bc:	2b 8d 00 20 	lw r13,(sp+32)
 20004c0:	2b 8e 00 1c 	lw r14,(sp+28)
 20004c4:	2b 8f 00 18 	lw r15,(sp+24)
 20004c8:	2b 90 00 14 	lw r16,(sp+20)
 20004cc:	2b 91 00 10 	lw r17,(sp+16)
 20004d0:	2b 92 00 0c 	lw r18,(sp+12)
 20004d4:	2b 93 00 08 	lw r19,(sp+8)
 20004d8:	37 9c 00 28 	addi sp,sp,40
 20004dc:	c3 a0 00 00 	ret
   	}
  
    byteRead = rx_data[0];  		// read year
   	if (yearmod4 != byteRead % 4 )  // check if year is incremented in RTC
   	{	// in this case the new value should be written to RTC RAM at address 16(0x10)
   		byteRead++;  
 20004e0:	34 a5 00 01 	addi r5,r5,1
   		address = 0x10;				// address in memory
   		tx_data[0] = byteRead;		// data to be written
 20004e4:	78 06 02 00 	mvhi r6,0x200
   	}
  
    byteRead = rx_data[0];  		// read year
   	if (yearmod4 != byteRead % 4 )  // check if year is incremented in RTC
   	{	// in this case the new value should be written to RTC RAM at address 16(0x10)
   		byteRead++;  
 20004e8:	20 a5 00 ff 	andi r5,r5,0xff
   		address = 0x10;				// address in memory
   		tx_data[0] = byteRead;		// data to be written
 20004ec:	38 c6 b5 10 	ori r6,r6,0xb510
 20004f0:	78 01 80 00 	mvhi r1,0x8000
 20004f4:	38 21 03 00 	ori r1,r1,0x300
 20004f8:	b8 a0 20 00 	mv r4,r5
 20004fc:	34 02 00 a0 	mvi r2,160
 2000500:	34 03 00 10 	mvi r3,16
 2000504:	30 c5 00 00 	sb (r6+0),r5
   	}
  
    byteRead = rx_data[0];  		// read year
   	if (yearmod4 != byteRead % 4 )  // check if year is incremented in RTC
   	{	// in this case the new value should be written to RTC RAM at address 16(0x10)
   		byteRead++;  
 2000508:	32 25 00 00 	sb (r17+0),r5
 200050c:	f8 00 03 67 	calli 20012a8 <EE_hal_i2c_write_byte_polling>
   		address = 0x10;				// address in memory
   		tx_data[0] = byteRead;		// data to be written
   		retvalue[0] = EE_i2c_write_byte(device, address, tx_data[0]);	
 2000510:	5a 61 00 00 	sw (r19+0),r1
   		if(retvalue[0]!= EE_I2C_OK)
 2000514:	44 20 ff e4 	be r1,r0,20004a4 <rtc_read+0x168>
   		{
	   		str1[0] = '\0';
 2000518:	78 0b 02 00 	mvhi r11,0x200
	   		str2[0] = '\0';
 200051c:	78 0c 02 00 	mvhi r12,0x200
   		address = 0x10;				// address in memory
   		tx_data[0] = byteRead;		// data to be written
   		retvalue[0] = EE_i2c_write_byte(device, address, tx_data[0]);	
   		if(retvalue[0]!= EE_I2C_OK)
   		{
	   		str1[0] = '\0';
 2000520:	39 6b b4 30 	ori r11,r11,0xb430
	   		str2[0] = '\0';
 2000524:	39 8c b4 ac 	ori r12,r12,0xb4ac
 2000528:	31 92 00 00 	sb (r12+0),r18
   		address = 0x10;				// address in memory
   		tx_data[0] = byteRead;		// data to be written
   		retvalue[0] = EE_i2c_write_byte(device, address, tx_data[0]);	
   		if(retvalue[0]!= EE_I2C_OK)
   		{
	   		str1[0] = '\0';
 200052c:	31 72 00 00 	sb (r11+0),r18
	   		str2[0] = '\0';
	   		sprintf(str2,"%d",retvalue[0]);
 2000530:	2a 63 00 00 	lw r3,(r19+0)
 2000534:	78 02 02 00 	mvhi r2,0x200
 2000538:	38 42 a1 a8 	ori r2,r2,0xa1a8
 200053c:	b9 80 08 00 	mv r1,r12
 2000540:	f8 00 05 bc 	calli 2001c30 <sprintf>
	   		strcat(str1,"\nrtc_write error code: -6\nreturn value: ");
 2000544:	b9 60 08 00 	mv r1,r11
 2000548:	f8 00 06 2c 	calli 2001df8 <strlen>
 200054c:	78 02 02 00 	mvhi r2,0x200
 2000550:	34 03 00 29 	mvi r3,41
 2000554:	38 42 a1 d8 	ori r2,r2,0xa1d8
 2000558:	b5 61 08 00 	add r1,r11,r1
 200055c:	f8 00 05 75 	calli 2001b30 <memcpy>
	   		strcat(str1,str2);
 2000560:	b9 80 10 00 	mv r2,r12
 2000564:	b9 60 08 00 	mv r1,r11
 2000568:	f8 00 05 d7 	calli 2001cc4 <strcat>
	   		print_error((EE_UINT8 *)str1, strlen(str1));		
 200056c:	b9 60 08 00 	mv r1,r11
 2000570:	f8 00 06 22 	calli 2001df8 <strlen>
 2000574:	b8 20 18 00 	mv r3,r1
 2000578:	78 01 02 00 	mvhi r1,0x200
 200057c:	38 21 aa a0 	ori r1,r1,0xaaa0
 2000580:	b9 60 10 00 	mv r2,r11
 2000584:	f8 00 02 78 	calli 2000f64 <EE_hal_uart_write_buffer>
 2000588:	34 01 ff fa 	mvi r1,-6
 200058c:	e3 ff ff c9 	bi 20004b0 <rtc_read+0x174>
	
	address = 2;											// address in memory
   	retvalue[0] = EE_i2c_read_buffer(device, address, rx_data, 5);	
   	if(retvalue[0]!= EE_I2C_OK)
   	{
   		str1[0] = '\0';
 2000590:	78 0b 02 00 	mvhi r11,0x200
   		str2[0] = '\0';
 2000594:	78 0c 02 00 	mvhi r12,0x200
	
	address = 2;											// address in memory
   	retvalue[0] = EE_i2c_read_buffer(device, address, rx_data, 5);	
   	if(retvalue[0]!= EE_I2C_OK)
   	{
   		str1[0] = '\0';
 2000598:	39 6b b4 30 	ori r11,r11,0xb430
   		str2[0] = '\0';
 200059c:	39 8c b4 ac 	ori r12,r12,0xb4ac
 20005a0:	31 81 00 00 	sb (r12+0),r1
	
	address = 2;											// address in memory
   	retvalue[0] = EE_i2c_read_buffer(device, address, rx_data, 5);	
   	if(retvalue[0]!= EE_I2C_OK)
   	{
   		str1[0] = '\0';
 20005a4:	31 61 00 00 	sb (r11+0),r1
   		str2[0] = '\0';
   		sprintf(str2,"%d",retvalue[0]);
 20005a8:	2a 63 00 00 	lw r3,(r19+0)
 20005ac:	78 02 02 00 	mvhi r2,0x200
 20005b0:	38 42 a1 a8 	ori r2,r2,0xa1a8
 20005b4:	b9 80 08 00 	mv r1,r12
 20005b8:	f8 00 05 9e 	calli 2001c30 <sprintf>
   		strcat(str1,"\nrtc_write error code: -4\nreturn value: ");
 20005bc:	b9 60 08 00 	mv r1,r11
 20005c0:	f8 00 06 0e 	calli 2001df8 <strlen>
 20005c4:	78 02 02 00 	mvhi r2,0x200
 20005c8:	34 03 00 29 	mvi r3,41
 20005cc:	38 42 a1 ac 	ori r2,r2,0xa1ac
 20005d0:	b5 61 08 00 	add r1,r11,r1
 20005d4:	f8 00 05 57 	calli 2001b30 <memcpy>
   		strcat(str1,str2);
 20005d8:	b9 80 10 00 	mv r2,r12
 20005dc:	b9 60 08 00 	mv r1,r11
 20005e0:	f8 00 05 b9 	calli 2001cc4 <strcat>
   		print_error((EE_UINT8 *)str1, strlen(str1));	
 20005e4:	b9 60 08 00 	mv r1,r11
 20005e8:	f8 00 06 04 	calli 2001df8 <strlen>
 20005ec:	b8 20 18 00 	mv r3,r1
 20005f0:	78 01 02 00 	mvhi r1,0x200
 20005f4:	38 21 aa a0 	ori r1,r1,0xaaa0
 20005f8:	b9 60 10 00 	mv r2,r11
 20005fc:	f8 00 02 5a 	calli 2000f64 <EE_hal_uart_write_buffer>
 2000600:	34 01 ff fc 	mvi r1,-4
 2000604:	e3 ff ff ab 	bi 20004b0 <rtc_read+0x174>

02000608 <FuncTask1>:

/*
 * Task 1
 */
TASK(Task1)
{
 2000608:	37 9c ff f4 	addi sp,sp,-12
 200060c:	5b 8b 00 08 	sw (sp+8),r11
 2000610:	5b 9d 00 04 	sw (sp+4),ra
	int ret;
	int retval=0;
	
    counter1++;
 2000614:	78 02 02 00 	mvhi r2,0x200
 2000618:	38 42 b3 10 	ori r2,r2,0xb310
 200061c:	28 43 00 00 	lw r3,(r2+0)
 * Task 1
 */
TASK(Task1)
{
	int ret;
	int retval=0;
 2000620:	34 04 00 00 	mvi r4,0
	
    counter1++;
    
    ret = rtc_read(&retval);
 2000624:	37 81 00 0c 	addi r1,sp,12
TASK(Task1)
{
	int ret;
	int retval=0;
	
    counter1++;
 2000628:	34 63 00 01 	addi r3,r3,1
 200062c:	58 43 00 00 	sw (r2+0),r3
 * Task 1
 */
TASK(Task1)
{
	int ret;
	int retval=0;
 2000630:	5b 84 00 0c 	sw (sp+12),r4
	
    counter1++;
    
    ret = rtc_read(&retval);
 2000634:	fb ff ff 42 	calli 200033c <rtc_read>
 2000638:	b8 20 58 00 	mv r11,r1
    
    if(ret == EE_I2C_OK)
 200063c:	44 20 00 06 	be r1,r0,2000654 <FuncTask1+0x4c>

/* User functions */
void write_led(volatile unsigned int led)		// Function to turn on the leds 
{
    MicoGPIO_t *ledc = (MicoGPIO_t *)LED_BASE_ADDRESS;
    ledc->data = (EE_UINT8)led;
 2000640:	78 01 80 00 	mvhi r1,0x8000
 2000644:	38 21 00 80 	ori r1,r1,0x80
 2000648:	34 02 00 df 	mvi r2,223
 200064c:	58 22 00 00 	sw (r1+0),r2
 2000650:	e0 00 00 00 	bi 2000650 <FuncTask1+0x48>
    
    ret = rtc_read(&retval);
    
    if(ret == EE_I2C_OK)
    {
		ret = Display_Time(); 
 2000654:	fb ff fe e4 	calli 20001e4 <_ftext_rom>
		if(ret<0)
 2000658:	4c 2b 00 06 	bge r1,r11,2000670 <FuncTask1+0x68>

/* User functions */
void write_led(volatile unsigned int led)		// Function to turn on the leds 
{
    MicoGPIO_t *ledc = (MicoGPIO_t *)LED_BASE_ADDRESS;
    ledc->data = (EE_UINT8)led;
 200065c:	78 01 80 00 	mvhi r1,0x8000
 2000660:	38 21 00 80 	ori r1,r1,0x80
 2000664:	34 02 00 f7 	mvi r2,247
 2000668:	58 22 00 00 	sw (r1+0),r2
 200066c:	e0 00 00 00 	bi 200066c <FuncTask1+0x64>
   	{
   		write_led(LED6);
   		while(1);
   	}
	
}
 2000670:	2b 9d 00 04 	lw ra,(sp+4)
 2000674:	2b 8b 00 08 	lw r11,(sp+8)
 2000678:	37 9c 00 0c 	addi sp,sp,12
 200067c:	c3 a0 00 00 	ret

02000680 <rtc_write>:
	while(1);
	
    return 0;
}

int rtc_write(int * retvalue) {
 2000680:	37 9c ff d0 	addi sp,sp,-48
 2000684:	5b 8b 00 30 	sw (sp+48),r11
 2000688:	5b 8c 00 2c 	sw (sp+44),r12
 200068c:	5b 8d 00 28 	sw (sp+40),r13
 2000690:	5b 8e 00 24 	sw (sp+36),r14
 2000694:	5b 8f 00 20 	sw (sp+32),r15
 2000698:	5b 90 00 1c 	sw (sp+28),r16
 200069c:	5b 91 00 18 	sw (sp+24),r17
 20006a0:	5b 92 00 14 	sw (sp+20),r18
 20006a4:	5b 93 00 10 	sw (sp+16),r19
 20006a8:	5b 94 00 0c 	sw (sp+12),r20
 20006ac:	5b 95 00 08 	sw (sp+8),r21
 20006b0:	5b 9d 00 04 	sw (sp+4),ra
    TimeToWrite.hours   = 23;
   	TimeToWrite.minutes = 59;
   	TimeToWrite.seconds = 40;
   	
   	address = 0;							// address in memory
   	tx_data[0] = 0x80;
 20006b4:	78 13 02 00 	mvhi r19,0x200
 20006b8:	3a 73 b5 10 	ori r19,r19,0xb510
	while(1);
	
    return 0;
}

int rtc_write(int * retvalue) {
 20006bc:	b8 20 a0 00 	mv r20,r1
	EE_UINT8 device = 0xA0;
	EE_UINT8 address;
	
    TimeToWrite.year    = 7;    			// 2007 (offset from 2000)
 20006c0:	34 0b 00 07 	mvi r11,7
   	TimeToWrite.minutes = 59;
   	TimeToWrite.seconds = 40;
   	
   	address = 0;							// address in memory
   	tx_data[0] = 0x80;
   	tx_data[1] = 0;
 20006c4:	34 15 00 00 	mvi r21,0

int rtc_write(int * retvalue) {
	EE_UINT8 device = 0xA0;
	EE_UINT8 address;
	
    TimeToWrite.year    = 7;    			// 2007 (offset from 2000)
 20006c8:	78 12 02 00 	mvhi r18,0x200
 20006cc:	78 01 80 00 	mvhi r1,0x8000
 20006d0:	3a 52 b4 a4 	ori r18,r18,0xb4a4
    TimeToWrite.month   = 12;
    TimeToWrite.day     = 31;
 20006d4:	34 0d 00 1f 	mvi r13,31
   	TimeToWrite.seconds = 40;
   	
   	address = 0;							// address in memory
   	tx_data[0] = 0x80;
   	tx_data[1] = 0;
   	tx_data[2] = ((TimeToWrite.seconds/10)<<4) + (TimeToWrite.seconds%10);
 20006d8:	34 06 00 40 	mvi r6,64
   	tx_data[3] = ((TimeToWrite.minutes/10)<<4) + (TimeToWrite.minutes%10);
 20006dc:	34 07 00 59 	mvi r7,89
   	tx_data[4] = ((TimeToWrite.hours/10)<<4) + (TimeToWrite.hours%10);
 20006e0:	34 08 00 23 	mvi r8,35
   	tx_data[5] = ((TimeToWrite.year%4)<<6) + ((TimeToWrite.day/10)<<4) +(TimeToWrite.day%10);
 20006e4:	34 09 ff f1 	mvi r9,-15
   	tx_data[6] = ((TimeToWrite.month/10)<<4) + (TimeToWrite.month%10);
 20006e8:	34 0a 00 12 	mvi r10,18
 20006ec:	38 21 03 00 	ori r1,r1,0x300
int rtc_write(int * retvalue) {
	EE_UINT8 device = 0xA0;
	EE_UINT8 address;
	
    TimeToWrite.year    = 7;    			// 2007 (offset from 2000)
    TimeToWrite.month   = 12;
 20006f0:	34 0c 00 0c 	mvi r12,12
    TimeToWrite.day     = 31;
    TimeToWrite.hours   = 23;
 20006f4:	34 0e 00 17 	mvi r14,23
   	TimeToWrite.minutes = 59;
 20006f8:	34 0f 00 3b 	mvi r15,59
   	TimeToWrite.seconds = 40;
 20006fc:	34 10 00 28 	mvi r16,40
   	
   	address = 0;							// address in memory
   	tx_data[0] = 0x80;
 2000700:	34 11 ff 80 	mvi r17,-128
 2000704:	34 02 00 a0 	mvi r2,160
 2000708:	ba a0 18 00 	mv r3,r21
 200070c:	ba 60 20 00 	mv r4,r19
 2000710:	b9 60 28 00 	mv r5,r11
	EE_UINT8 device = 0xA0;
	EE_UINT8 address;
	
    TimeToWrite.year    = 7;    			// 2007 (offset from 2000)
    TimeToWrite.month   = 12;
    TimeToWrite.day     = 31;
 2000714:	32 4d 00 02 	sb (r18+2),r13

int rtc_write(int * retvalue) {
	EE_UINT8 device = 0xA0;
	EE_UINT8 address;
	
    TimeToWrite.year    = 7;    			// 2007 (offset from 2000)
 2000718:	32 4b 00 00 	sb (r18+0),r11
    TimeToWrite.month   = 12;
 200071c:	32 4c 00 01 	sb (r18+1),r12
    TimeToWrite.day     = 31;
    TimeToWrite.hours   = 23;
 2000720:	32 4e 00 03 	sb (r18+3),r14
   	TimeToWrite.minutes = 59;
 2000724:	32 4f 00 04 	sb (r18+4),r15
   	TimeToWrite.seconds = 40;
 2000728:	32 50 00 05 	sb (r18+5),r16
   	
   	address = 0;							// address in memory
   	tx_data[0] = 0x80;
 200072c:	32 71 00 00 	sb (r19+0),r17
   	tx_data[1] = 0;
   	tx_data[2] = ((TimeToWrite.seconds/10)<<4) + (TimeToWrite.seconds%10);
 2000730:	32 66 00 02 	sb (r19+2),r6
   	tx_data[3] = ((TimeToWrite.minutes/10)<<4) + (TimeToWrite.minutes%10);
 2000734:	32 67 00 03 	sb (r19+3),r7
   	tx_data[4] = ((TimeToWrite.hours/10)<<4) + (TimeToWrite.hours%10);
 2000738:	32 68 00 04 	sb (r19+4),r8
   	tx_data[5] = ((TimeToWrite.year%4)<<6) + ((TimeToWrite.day/10)<<4) +(TimeToWrite.day%10);
 200073c:	32 69 00 05 	sb (r19+5),r9
   	tx_data[6] = ((TimeToWrite.month/10)<<4) + (TimeToWrite.month%10);
 2000740:	32 6a 00 06 	sb (r19+6),r10
   	TimeToWrite.minutes = 59;
   	TimeToWrite.seconds = 40;
   	
   	address = 0;							// address in memory
   	tx_data[0] = 0x80;
   	tx_data[1] = 0;
 2000744:	32 75 00 01 	sb (r19+1),r21
 2000748:	f8 00 03 44 	calli 2001458 <EE_hal_i2c_write_buffer_polling>
   	tx_data[2] = ((TimeToWrite.seconds/10)<<4) + (TimeToWrite.seconds%10);
   	tx_data[3] = ((TimeToWrite.minutes/10)<<4) + (TimeToWrite.minutes%10);
   	tx_data[4] = ((TimeToWrite.hours/10)<<4) + (TimeToWrite.hours%10);
   	tx_data[5] = ((TimeToWrite.year%4)<<6) + ((TimeToWrite.day/10)<<4) +(TimeToWrite.day%10);
   	tx_data[6] = ((TimeToWrite.month/10)<<4) + (TimeToWrite.month%10);
   	retvalue[0] = EE_i2c_write_buffer(device, address, tx_data, 7);	
 200074c:	5a 81 00 00 	sw (r20+0),r1
 2000750:	b8 20 68 00 	mv r13,r1
   	
   	if(retvalue[0]!= EE_I2C_OK) 
 2000754:	5c 35 00 25 	bne r1,r21,20007e8 <rtc_write+0x168>
   		print_error((EE_UINT8 *)str1, strlen(str1));	
   		return -1;
   	}

	address = 0x10;							// address in memory
   	tx_data[0] = TimeToWrite.year;			// data to be written
 2000758:	42 45 00 00 	lbu r5,(r18+0)
 200075c:	78 01 80 00 	mvhi r1,0x8000
 2000760:	38 21 03 00 	ori r1,r1,0x300
 2000764:	b8 a0 20 00 	mv r4,r5
 2000768:	34 02 00 a0 	mvi r2,160
 200076c:	34 03 00 10 	mvi r3,16
 2000770:	32 65 00 00 	sb (r19+0),r5
 2000774:	f8 00 02 cd 	calli 20012a8 <EE_hal_i2c_write_byte_polling>
   	retvalue[0] = EE_i2c_write_byte(device, address, tx_data[0]);	
 2000778:	5a 81 00 00 	sw (r20+0),r1
 200077c:	b8 20 58 00 	mv r11,r1
   	if(retvalue[0]!= EE_I2C_OK)
 2000780:	5c 2d 00 38 	bne r1,r13,2000860 <rtc_write+0x1e0>
 2000784:	78 01 80 00 	mvhi r1,0x8000
 2000788:	34 02 00 a0 	mvi r2,160
 200078c:	38 21 03 00 	ori r1,r1,0x300
 2000790:	b9 60 18 00 	mv r3,r11
 2000794:	b9 60 20 00 	mv r4,r11
   		print_error((EE_UINT8 *)str1, strlen(str1));		
   		return -2;
   	}

	address = 0;							// address in memory
   	tx_data[0] = 0;							// data to be written
 2000798:	32 6b 00 00 	sb (r19+0),r11
 200079c:	f8 00 02 c3 	calli 20012a8 <EE_hal_i2c_write_byte_polling>
   	retvalue[0] = EE_i2c_write_byte(device, address, tx_data[0]);	
 20007a0:	5a 81 00 00 	sw (r20+0),r1
   	if(retvalue[0]!= EE_I2C_OK)
 20007a4:	b8 20 10 00 	mv r2,r1
 20007a8:	5c 2b 00 4c 	bne r1,r11,20008d8 <rtc_write+0x258>
   		print_error((EE_UINT8 *)str1, strlen(str1));		
   		return -2;
   	}
	
   	return 0;
}
 20007ac:	b8 40 08 00 	mv r1,r2
 20007b0:	2b 9d 00 04 	lw ra,(sp+4)
 20007b4:	2b 8b 00 30 	lw r11,(sp+48)
 20007b8:	2b 8c 00 2c 	lw r12,(sp+44)
 20007bc:	2b 8d 00 28 	lw r13,(sp+40)
 20007c0:	2b 8e 00 24 	lw r14,(sp+36)
 20007c4:	2b 8f 00 20 	lw r15,(sp+32)
 20007c8:	2b 90 00 1c 	lw r16,(sp+28)
 20007cc:	2b 91 00 18 	lw r17,(sp+24)
 20007d0:	2b 92 00 14 	lw r18,(sp+20)
 20007d4:	2b 93 00 10 	lw r19,(sp+16)
 20007d8:	2b 94 00 0c 	lw r20,(sp+12)
 20007dc:	2b 95 00 08 	lw r21,(sp+8)
 20007e0:	37 9c 00 30 	addi sp,sp,48
 20007e4:	c3 a0 00 00 	ret
   	tx_data[6] = ((TimeToWrite.month/10)<<4) + (TimeToWrite.month%10);
   	retvalue[0] = EE_i2c_write_buffer(device, address, tx_data, 7);	
   	
   	if(retvalue[0]!= EE_I2C_OK) 
   	{
   		str1[0] = '\0';
 20007e8:	78 0b 02 00 	mvhi r11,0x200
   		str2[0] = '\0';
 20007ec:	78 0c 02 00 	mvhi r12,0x200
   	tx_data[6] = ((TimeToWrite.month/10)<<4) + (TimeToWrite.month%10);
   	retvalue[0] = EE_i2c_write_buffer(device, address, tx_data, 7);	
   	
   	if(retvalue[0]!= EE_I2C_OK) 
   	{
   		str1[0] = '\0';
 20007f0:	39 6b b4 30 	ori r11,r11,0xb430
   		str2[0] = '\0';
 20007f4:	39 8c b4 ac 	ori r12,r12,0xb4ac
 20007f8:	31 95 00 00 	sb (r12+0),r21
   	tx_data[6] = ((TimeToWrite.month/10)<<4) + (TimeToWrite.month%10);
   	retvalue[0] = EE_i2c_write_buffer(device, address, tx_data, 7);	
   	
   	if(retvalue[0]!= EE_I2C_OK) 
   	{
   		str1[0] = '\0';
 20007fc:	31 75 00 00 	sb (r11+0),r21
   		str2[0] = '\0';
   		sprintf(str2,"%d",retvalue[0]);
 2000800:	2a 83 00 00 	lw r3,(r20+0)
 2000804:	78 02 02 00 	mvhi r2,0x200
 2000808:	38 42 a1 a8 	ori r2,r2,0xa1a8
 200080c:	b9 80 08 00 	mv r1,r12
 2000810:	f8 00 05 08 	calli 2001c30 <sprintf>
   		strcat(str1,"\nrtc_write error code: -1\nreturn value: ");
 2000814:	b9 60 08 00 	mv r1,r11
 2000818:	f8 00 05 78 	calli 2001df8 <strlen>
 200081c:	78 02 02 00 	mvhi r2,0x200
 2000820:	34 03 00 29 	mvi r3,41
 2000824:	38 42 a2 04 	ori r2,r2,0xa204
 2000828:	b5 61 08 00 	add r1,r11,r1
 200082c:	f8 00 04 c1 	calli 2001b30 <memcpy>
   		strcat(str1,str2);
 2000830:	b9 80 10 00 	mv r2,r12
 2000834:	b9 60 08 00 	mv r1,r11
 2000838:	f8 00 05 23 	calli 2001cc4 <strcat>
   		print_error((EE_UINT8 *)str1, strlen(str1));	
 200083c:	b9 60 08 00 	mv r1,r11
 2000840:	f8 00 05 6e 	calli 2001df8 <strlen>
 2000844:	b8 20 18 00 	mv r3,r1
 2000848:	78 01 02 00 	mvhi r1,0x200
 200084c:	b9 60 10 00 	mv r2,r11
 2000850:	38 21 aa a0 	ori r1,r1,0xaaa0
 2000854:	f8 00 01 c4 	calli 2000f64 <EE_hal_uart_write_buffer>
 2000858:	34 02 ff ff 	mvi r2,-1
 200085c:	e3 ff ff d4 	bi 20007ac <rtc_write+0x12c>
	address = 0x10;							// address in memory
   	tx_data[0] = TimeToWrite.year;			// data to be written
   	retvalue[0] = EE_i2c_write_byte(device, address, tx_data[0]);	
   	if(retvalue[0]!= EE_I2C_OK)
   	{
   		str1[0] = '\0';
 2000860:	78 0b 02 00 	mvhi r11,0x200
   		str2[0] = '\0';
 2000864:	78 0c 02 00 	mvhi r12,0x200
	address = 0x10;							// address in memory
   	tx_data[0] = TimeToWrite.year;			// data to be written
   	retvalue[0] = EE_i2c_write_byte(device, address, tx_data[0]);	
   	if(retvalue[0]!= EE_I2C_OK)
   	{
   		str1[0] = '\0';
 2000868:	39 6b b4 30 	ori r11,r11,0xb430
   		str2[0] = '\0';
 200086c:	39 8c b4 ac 	ori r12,r12,0xb4ac
	address = 0x10;							// address in memory
   	tx_data[0] = TimeToWrite.year;			// data to be written
   	retvalue[0] = EE_i2c_write_byte(device, address, tx_data[0]);	
   	if(retvalue[0]!= EE_I2C_OK)
   	{
   		str1[0] = '\0';
 2000870:	31 6d 00 00 	sb (r11+0),r13
   		str2[0] = '\0';
 2000874:	31 95 00 00 	sb (r12+0),r21
   		sprintf(str2,"%d",retvalue[0]);
 2000878:	2a 83 00 00 	lw r3,(r20+0)
 200087c:	78 02 02 00 	mvhi r2,0x200
 2000880:	38 42 a1 a8 	ori r2,r2,0xa1a8
 2000884:	b9 80 08 00 	mv r1,r12
 2000888:	f8 00 04 ea 	calli 2001c30 <sprintf>
   		strcat(str1,"\nrtc_write error code: -2\nreturn value: ");
 200088c:	b9 60 08 00 	mv r1,r11
 2000890:	f8 00 05 5a 	calli 2001df8 <strlen>
 2000894:	78 02 02 00 	mvhi r2,0x200
 2000898:	38 42 a2 30 	ori r2,r2,0xa230
 200089c:	34 03 00 29 	mvi r3,41
 20008a0:	b5 61 08 00 	add r1,r11,r1
 20008a4:	f8 00 04 a3 	calli 2001b30 <memcpy>
   		strcat(str1,str2);
 20008a8:	b9 60 08 00 	mv r1,r11
 20008ac:	b9 80 10 00 	mv r2,r12
 20008b0:	f8 00 05 05 	calli 2001cc4 <strcat>
   		print_error((EE_UINT8 *)str1, strlen(str1));		
 20008b4:	b9 60 08 00 	mv r1,r11
 20008b8:	f8 00 05 50 	calli 2001df8 <strlen>
   		str1[0] = '\0';
   		str2[0] = '\0';
   		sprintf(str2,"%d",retvalue[0]);
   		strcat(str1,"\nrtc_write error code: -2\nreturn value: ");
   		strcat(str1,str2);
   		print_error((EE_UINT8 *)str1, strlen(str1));		
 20008bc:	b8 20 18 00 	mv r3,r1
 20008c0:	78 01 02 00 	mvhi r1,0x200
 20008c4:	b9 60 10 00 	mv r2,r11
 20008c8:	38 21 aa a0 	ori r1,r1,0xaaa0
 20008cc:	f8 00 01 a6 	calli 2000f64 <EE_hal_uart_write_buffer>
 20008d0:	34 02 ff fe 	mvi r2,-2
 20008d4:	e3 ff ff b6 	bi 20007ac <rtc_write+0x12c>
	address = 0;							// address in memory
   	tx_data[0] = 0;							// data to be written
   	retvalue[0] = EE_i2c_write_byte(device, address, tx_data[0]);	
   	if(retvalue[0]!= EE_I2C_OK)
   	{
   		str1[0] = '\0';
 20008d8:	78 0b 02 00 	mvhi r11,0x200
   		str2[0] = '\0';
 20008dc:	78 0c 02 00 	mvhi r12,0x200
	address = 0;							// address in memory
   	tx_data[0] = 0;							// data to be written
   	retvalue[0] = EE_i2c_write_byte(device, address, tx_data[0]);	
   	if(retvalue[0]!= EE_I2C_OK)
   	{
   		str1[0] = '\0';
 20008e0:	39 6b b4 30 	ori r11,r11,0xb430
   		str2[0] = '\0';
 20008e4:	39 8c b4 ac 	ori r12,r12,0xb4ac
 20008e8:	31 95 00 00 	sb (r12+0),r21
	address = 0;							// address in memory
   	tx_data[0] = 0;							// data to be written
   	retvalue[0] = EE_i2c_write_byte(device, address, tx_data[0]);	
   	if(retvalue[0]!= EE_I2C_OK)
   	{
   		str1[0] = '\0';
 20008ec:	31 75 00 00 	sb (r11+0),r21
   		str2[0] = '\0';
   		sprintf(str2,"%d",retvalue[0]);
 20008f0:	2a 83 00 00 	lw r3,(r20+0)
 20008f4:	78 02 02 00 	mvhi r2,0x200
 20008f8:	38 42 a1 a8 	ori r2,r2,0xa1a8
 20008fc:	b9 80 08 00 	mv r1,r12
 2000900:	f8 00 04 cc 	calli 2001c30 <sprintf>
   		strcat(str1,"\nrtc_write error code: -2\nreturn value: ");
 2000904:	b9 60 08 00 	mv r1,r11
 2000908:	f8 00 05 3c 	calli 2001df8 <strlen>
 200090c:	78 02 02 00 	mvhi r2,0x200
 2000910:	34 03 00 29 	mvi r3,41
 2000914:	b5 61 08 00 	add r1,r11,r1
 2000918:	38 42 a2 30 	ori r2,r2,0xa230
 200091c:	f8 00 04 85 	calli 2001b30 <memcpy>
   		strcat(str1,str2);
 2000920:	b9 60 08 00 	mv r1,r11
 2000924:	b9 80 10 00 	mv r2,r12
 2000928:	f8 00 04 e7 	calli 2001cc4 <strcat>
   		print_error((EE_UINT8 *)str1, strlen(str1));		
 200092c:	b9 60 08 00 	mv r1,r11
 2000930:	f8 00 05 32 	calli 2001df8 <strlen>
 2000934:	e3 ff ff e2 	bi 20008bc <rtc_write+0x23c>

02000938 <main>:

/*
 * MAIN TASK
 */
int main(void)
{
 2000938:	37 9c ff ec 	addi sp,sp,-20
 200093c:	5b 8b 00 10 	sw (sp+16),r11
 2000940:	5b 8c 00 0c 	sw (sp+12),r12
 2000944:	5b 8d 00 08 	sw (sp+8),r13
 2000948:	5b 9d 00 04 	sw (sp+4),ra
	int i = 0;
	int ret;
	int retval=0;
 200094c:	34 02 00 00 	mvi r2,0
 2000950:	5b 82 00 14 	sw (sp+20),r2
 * Disable interrupts
 */
__INLINE__ EE_FREG __ALWAYS_INLINE__ EE_mico32_disableIRQ(void)
{
    EE_FREG oldie, newie;
    asm volatile ("rcsr %0,ie":"=r"(oldie));
 2000954:	90 00 08 00 	rcsr r1,IE
    newie = oldie & (~0x1);
    asm volatile ("wcsr ie, %0"::"r"(newie));
 2000958:	34 02 ff fe 	mvi r2,-2
 200095c:	a0 22 08 00 	and r1,r1,r2
 2000960:	d0 01 00 00 	wcsr IE,r1

/* User functions */
void write_led(volatile unsigned int led)		// Function to turn on the leds 
{
    MicoGPIO_t *ledc = (MicoGPIO_t *)LED_BASE_ADDRESS;
    ledc->data = (EE_UINT8)led;
 2000964:	78 0c 80 00 	mvhi r12,0x8000
 2000968:	34 03 00 ff 	mvi r3,255
 200096c:	39 8c 00 80 	ori r12,r12,0x80
 2000970:	78 01 02 00 	mvhi r1,0x200
 2000974:	78 02 00 01 	mvhi r2,0x1
 2000978:	59 83 00 00 	sw (r12+0),r3
 200097c:	38 21 aa a0 	ori r1,r1,0xaaa0
 2000980:	38 42 c2 00 	ori r2,r2,0xc200
 2000984:	34 03 00 03 	mvi r3,3
 2000988:	f8 00 01 d1 	calli 20010cc <EE_hal_uart_config>
 200098c:	b8 20 58 00 	mv r11,r1
	EE_mico32_disableIRQ();

	/* Turn off all leds */
	write_led(NONE_LED);
	
	if( EE_uart_config(115200, EE_UART_BIT8_NO | EE_UART_BIT_STOP_1) != EE_UART_OK )
 2000990:	44 20 00 04 	be r1,r0,20009a0 <main+0x68>

/* User functions */
void write_led(volatile unsigned int led)		// Function to turn on the leds 
{
    MicoGPIO_t *ledc = (MicoGPIO_t *)LED_BASE_ADDRESS;
    ledc->data = (EE_UINT8)led;
 2000994:	34 01 00 ef 	mvi r1,239
 2000998:	59 81 00 00 	sw (r12+0),r1
 200099c:	e0 00 00 00 	bi 200099c <main+0x64>
 20009a0:	34 03 00 fe 	mvi r3,254
 20009a4:	78 01 80 00 	mvhi r1,0x8000
 20009a8:	78 02 00 01 	mvhi r2,0x1
 20009ac:	59 83 00 00 	sw (r12+0),r3
 20009b0:	38 21 03 00 	ori r1,r1,0x300
 20009b4:	38 42 86 a0 	ori r2,r2,0x86a0
 20009b8:	b9 60 18 00 	mv r3,r11
 20009bc:	f8 00 03 25 	calli 2001650 <EE_hal_i2c_config>
 20009c0:	b8 20 68 00 	mv r13,r1
	}

	write_led(LED1);

	///* Background activity */
	if( EE_i2c_config(100000, 0) == EE_I2C_OK )
 20009c4:	44 2b 00 04 	be r1,r11,20009d4 <main+0x9c>

/* User functions */
void write_led(volatile unsigned int led)		// Function to turn on the leds 
{
    MicoGPIO_t *ledc = (MicoGPIO_t *)LED_BASE_ADDRESS;
    ledc->data = (EE_UINT8)led;
 20009c8:	34 01 00 7f 	mvi r1,127
 20009cc:	59 81 00 00 	sw (r12+0),r1
 20009d0:	e0 00 00 00 	bi 20009d0 <main+0x98>
	write_led(LED1);

	///* Background activity */
	if( EE_i2c_config(100000, 0) == EE_I2C_OK )
	{
			ret = rtc_write(&retval);
 20009d4:	37 81 00 14 	addi r1,sp,20
 20009d8:	fb ff ff 2a 	calli 2000680 <rtc_write>
 20009dc:	b8 20 10 00 	mv r2,r1
			if(ret == EE_I2C_OK)
 20009e0:	5c 2d 00 0e 	bne r1,r13,2000a18 <main+0xe0>
 20009e4:	78 0b 00 0f 	mvhi r11,0xf

/* User functions */
void write_led(volatile unsigned int led)		// Function to turn on the leds 
{
    MicoGPIO_t *ledc = (MicoGPIO_t *)LED_BASE_ADDRESS;
    ledc->data = (EE_UINT8)led;
 20009e8:	34 01 00 fd 	mvi r1,253
 20009ec:	59 81 00 00 	sw (r12+0),r1
			{
				write_led(LED2);
				/* Activate a periodic task */
	    		while(1)
	    		{
		 			for(i=0;i<1000000;i++);
 20009f0:	39 6b 42 3f 	ori r11,r11,0x423f
	   				ActivateTask(Task1);
 20009f4:	34 01 00 00 	mvi r1,0
			{
				write_led(LED2);
				/* Activate a periodic task */
	    		while(1)
	    		{
		 			for(i=0;i<1000000;i++);
 20009f8:	4d 62 00 06 	bge r11,r2,2000a10 <main+0xd8>
	   				ActivateTask(Task1);
 20009fc:	f8 00 00 ef 	calli 2000db8 <EE_fp_ActivateTask>
 2000a00:	34 02 00 00 	mvi r2,0
 2000a04:	34 01 00 00 	mvi r1,0
			{
				write_led(LED2);
				/* Activate a periodic task */
	    		while(1)
	    		{
		 			for(i=0;i<1000000;i++);
 2000a08:	4d 62 00 02 	bge r11,r2,2000a10 <main+0xd8>
 2000a0c:	e3 ff ff fc 	bi 20009fc <main+0xc4>
 2000a10:	34 42 00 01 	addi r2,r2,1
 2000a14:	e3 ff ff f8 	bi 20009f4 <main+0xbc>

/* User functions */
void write_led(volatile unsigned int led)		// Function to turn on the leds 
{
    MicoGPIO_t *ledc = (MicoGPIO_t *)LED_BASE_ADDRESS;
    ledc->data = (EE_UINT8)led;
 2000a18:	34 01 00 bf 	mvi r1,191
 2000a1c:	59 81 00 00 	sw (r12+0),r1
 2000a20:	e3 ff ff ec 	bi 20009d0 <main+0x98>

02000a24 <LatticeDDInit>:
//  
/////////////////////////////////////////////////////////////////////////////
    #include "DDStructs.h"

    void LatticeDDInit(void)
    {
 2000a24:	37 9c ff fc 	addi sp,sp,-4
 2000a28:	5b 9d 00 04 	sw (sp+4),ra
        LatticeMico32Init(&lm32_top_LM32);
        // Needed only to use the Jtag interface for I/O
#endif

        // Invoke application's main routine
        main();
 2000a2c:	fb ff ff c3 	calli 2000938 <main>
    }
 2000a30:	2b 9d 00 04 	lw ra,(sp+4)
 2000a34:	37 9c 00 04 	addi sp,sp,4
 2000a38:	c3 a0 00 00 	ret

02000a3c <EE_mico32_register_ISR>:


#ifndef __STATIC_ISR_TABLE__

void EE_mico32_register_ISR(int level, EE_mico32_ISR_handler fun)
{
 2000a3c:	b8 20 20 00 	mv r4,r1
 * Disable interrupts
 */
__INLINE__ EE_FREG __ALWAYS_INLINE__ EE_mico32_disableIRQ(void)
{
    EE_FREG oldie, newie;
    asm volatile ("rcsr %0,ie":"=r"(oldie));
 2000a40:	90 00 28 00 	rcsr r5,IE
    newie = oldie & (~0x1);
    asm volatile ("wcsr ie, %0"::"r"(newie));
 2000a44:	34 01 ff fe 	mvi r1,-2
 2000a48:	a0 a1 08 00 	and r1,r5,r1
 2000a4c:	d0 01 00 00 	wcsr IE,r1
    int mask;
    EE_FREG intst = EE_mico32_disableIRQ();
    EE_mico32_ISR_table[level] = fun;
 2000a50:	78 03 02 00 	mvhi r3,0x200
 2000a54:	3c 81 00 02 	sli r1,r4,2
 2000a58:	38 63 b5 2c 	ori r3,r3,0xb52c
 2000a5c:	b4 61 18 00 	add r3,r3,r1
 2000a60:	58 62 00 00 	sw (r3+0),r2


__INLINE__ int __ALWAYS_INLINE__ mico32_get_reg_im(void)
{
    int im;
    asm volatile ( "rcsr %0,im":"=r"(im) );
 2000a64:	90 20 18 00 	rcsr r3,IM
    mask = mico32_get_reg_im();
    if (fun)
        mask |= 1 << level;
 2000a68:	34 01 00 01 	mvi r1,1
 2000a6c:	bc 24 08 00 	sl r1,r1,r4
 2000a70:	b8 61 08 00 	or r1,r3,r1
{
    int mask;
    EE_FREG intst = EE_mico32_disableIRQ();
    EE_mico32_ISR_table[level] = fun;
    mask = mico32_get_reg_im();
    if (fun)
 2000a74:	44 40 00 08 	be r2,r0,2000a94 <EE_mico32_register_ISR+0x58>
}


__INLINE__ void __ALWAYS_INLINE__ mico32_set_reg_im(int im)
{
    asm volatile ( "wcsr im,%0"::"r"(im) );
 2000a78:	d0 21 00 00 	wcsr IM,r1
        mask |= 1 << level;
    else
        mask &= ~(1 << level);
    mico32_set_reg_im(mask);
    if (EE_mico32_are_IRQs_enabled(intst))
 2000a7c:	20 a1 00 01 	andi r1,r5,0x1
 2000a80:	44 20 00 04 	be r1,r0,2000a90 <EE_mico32_register_ISR+0x54>
 * Enable interrupts
 */
__INLINE__ void __ALWAYS_INLINE__ EE_mico32_enableIRQ(void)
{
    EE_FREG oldie, newie;
    asm volatile ("rcsr %0,ie":"=r"(oldie));
 2000a84:	90 00 08 00 	rcsr r1,IE
    newie = oldie | (0x1);
    asm volatile ("wcsr ie, %0"::"r"(newie));
 2000a88:	38 21 00 01 	ori r1,r1,0x1
 2000a8c:	d0 01 00 00 	wcsr IE,r1
 2000a90:	c3 a0 00 00 	ret
    EE_mico32_ISR_table[level] = fun;
    mask = mico32_get_reg_im();
    if (fun)
        mask |= 1 << level;
    else
        mask &= ~(1 << level);
 2000a94:	34 01 00 01 	mvi r1,1
 2000a98:	bc 24 08 00 	sl r1,r1,r4
 2000a9c:	a4 20 08 00 	not r1,r1
 2000aa0:	a0 61 08 00 	and r1,r3,r1
 2000aa4:	e3 ff ff f5 	bi 2000a78 <EE_mico32_register_ISR+0x3c>

02000aa8 <MicoISRHandler>:


/* Possible improvement: Enable higher-level interrupts while processing lower
 * level interrupts, even in this function */
void MicoISRHandler(void)
{
 2000aa8:	37 9c ff f0 	addi sp,sp,-16
 2000aac:	5b 8b 00 10 	sw (sp+16),r11
 2000ab0:	5b 8c 00 0c 	sw (sp+12),r12
 2000ab4:	5b 8d 00 08 	sw (sp+8),r13
 2000ab8:	5b 9d 00 04 	sw (sp+4),ra
    EE_increment_IRQ_nesting_level();
 2000abc:	78 0d 02 00 	mvhi r13,0x200
 2000ac0:	39 ad b5 b4 	ori r13,r13,0xb5b4
 2000ac4:	34 01 00 01 	mvi r1,1
 2000ac8:	59 a1 00 00 	sw (r13+0),r1


__INLINE__ int __ALWAYS_INLINE__ mico32_get_reg_ip(void)
{
    int ip;
    asm volatile ( "rcsr %0,ip":"=r"(ip) );
 2000acc:	90 40 10 00 	rcsr r2,IP


__INLINE__ int __ALWAYS_INLINE__ mico32_get_reg_im(void)
{
    int im;
    asm volatile ( "rcsr %0,im":"=r"(im) );
 2000ad0:	90 20 08 00 	rcsr r1,IM
    int im, ip;

    for (;;) {
        ip = mico32_get_reg_ip();
        im = mico32_get_reg_im();
        ip &= im;
 2000ad4:	a0 41 10 00 	and r2,r2,r1
        if (ip == 0)
 2000ad8:	44 40 00 15 	be r2,r0,2000b2c <MicoISRHandler+0x84>
 2000adc:	78 0c 02 00 	mvhi r12,0x200
 2000ae0:	39 8c b5 2c 	ori r12,r12,0xb52c
 2000ae4:	20 43 00 01 	andi r3,r2,0x1
 2000ae8:	34 0b 00 01 	mvi r11,1
            break;
        for (mask = 1, level = 0; ; ++level, mask <<= 1) {
            if (ip & mask) {
 2000aec:	5c 60 00 29 	bne r3,r0,2000b90 <MicoISRHandler+0xe8>
        ip = mico32_get_reg_ip();
        im = mico32_get_reg_im();
        ip &= im;
        if (ip == 0)
            break;
        for (mask = 1, level = 0; ; ++level, mask <<= 1) {
 2000af0:	b5 6b 58 00 	add r11,r11,r11
            if (ip & mask) {
 2000af4:	a1 62 08 00 	and r1,r11,r2
        ip = mico32_get_reg_ip();
        im = mico32_get_reg_im();
        ip &= im;
        if (ip == 0)
            break;
        for (mask = 1, level = 0; ; ++level, mask <<= 1) {
 2000af8:	34 63 00 01 	addi r3,r3,1
            if (ip & mask) {
 2000afc:	44 20 ff fd 	be r1,r0,2000af0 <MicoISRHandler+0x48>
                EE_mico32_ISR_handler f = EE_mico32_ISR_table[level];
 2000b00:	3c 61 00 02 	sli r1,r3,2
 2000b04:	b5 81 08 00 	add r1,r12,r1
 2000b08:	28 22 00 00 	lw r2,(r1+0)
                if (f)
 2000b0c:	44 40 00 03 	be r2,r0,2000b18 <MicoISRHandler+0x70>
*/
#else /* __IRQ_STACK_NEEDED__ is defined */
__INLINE__ void __ALWAYS_INLINE__ EE_mico32_call_ISR_new_stack(int irq_level, EE_mico32_ISR_handler fun, int nesting_level)
{
    EE_std_enableIRQ_nested(); /* Enable IRQ if nesting is allowed */
    fun(irq_level);
 2000b10:	b8 60 08 00 	mv r1,r3
 2000b14:	d8 40 00 00 	call r2
}


__INLINE__ void __ALWAYS_INLINE__ mico32_clear_ip_mask(int mask)
{
    asm volatile ( "wcsr ip,%0"::"r"(mask) );
 2000b18:	d0 4b 00 00 	wcsr IP,r11


__INLINE__ int __ALWAYS_INLINE__ mico32_get_reg_ip(void)
{
    int ip;
    asm volatile ( "rcsr %0,ip":"=r"(ip) );
 2000b1c:	90 40 10 00 	rcsr r2,IP


__INLINE__ int __ALWAYS_INLINE__ mico32_get_reg_im(void)
{
    int im;
    asm volatile ( "rcsr %0,im":"=r"(im) );
 2000b20:	90 20 08 00 	rcsr r1,IM
    int im, ip;

    for (;;) {
        ip = mico32_get_reg_ip();
        im = mico32_get_reg_im();
        ip &= im;
 2000b24:	a0 22 10 00 	and r2,r1,r2
        if (ip == 0)
 2000b28:	5c 40 ff ef 	bne r2,r0,2000ae4 <MicoISRHandler+0x3c>
                mico32_clear_ip_mask(mask);
                break;
            }
        }
    }
    EE_decrement_IRQ_nesting_level();
 2000b2c:	34 01 00 00 	mvi r1,0
 2000b30:	59 a1 00 00 	sw (r13+0),r1
 * the scheduler and launch a new scheduled task (if any), or change the current
 * stack (if needed); return whenever there is nothing else to do.
 */
__INLINE__ void __ALWAYS_INLINE__ EE_std_after_IRQ_schedule(void)
{
    EE_IRQ_end_instance();
 2000b34:	f8 00 00 57 	calli 2000c90 <EE_IRQ_end_instance>
    if (EE_std_need_context_change(EE_std_endcycle_next_tid))
 2000b38:	78 01 02 00 	mvhi r1,0x200
 2000b3c:	38 21 b5 b8 	ori r1,r1,0xb5b8
 2000b40:	28 25 00 00 	lw r5,(r1+0)
 2000b44:	4c a0 00 0b 	bge r5,r0,2000b70 <MicoISRHandler+0xc8>
 2000b48:	34 a3 00 01 	addi r3,r5,1
 2000b4c:	3c 63 00 02 	sli r3,r3,2
 2000b50:	78 01 02 00 	mvhi r1,0x200
 2000b54:	38 21 a2 68 	ori r1,r1,0xa268
 2000b58:	78 02 02 00 	mvhi r2,0x200
 2000b5c:	b4 23 08 00 	add r1,r1,r3
 2000b60:	38 42 b3 18 	ori r2,r2,0xb318
 2000b64:	28 24 00 00 	lw r4,(r1+0)
 2000b68:	28 43 00 00 	lw r3,(r2+0)
 2000b6c:	44 83 00 03 	be r4,r3,2000b78 <MicoISRHandler+0xd0>
        EE_std_change_context(EE_std_endcycle_next_tid);
 2000b70:	b8 a0 08 00 	mv r1,r5
 2000b74:	f8 00 00 09 	calli 2000b98 <EE_std_change_context>
        /* Outer nesting level: call the scheduler.  If we have also type-ISR1
         * interrupts, the scheduler should be called only for type-ISR2
         * interrupts. */
        EE_std_after_IRQ_schedule();
    }
}
 2000b78:	2b 9d 00 04 	lw ra,(sp+4)
 2000b7c:	2b 8b 00 10 	lw r11,(sp+16)
 2000b80:	2b 8c 00 0c 	lw r12,(sp+12)
 2000b84:	2b 8d 00 08 	lw r13,(sp+8)
 2000b88:	37 9c 00 10 	addi sp,sp,16
 2000b8c:	c3 a0 00 00 	ret
        im = mico32_get_reg_im();
        ip &= im;
        if (ip == 0)
            break;
        for (mask = 1, level = 0; ; ++level, mask <<= 1) {
            if (ip & mask) {
 2000b90:	34 03 00 00 	mvi r3,0
 2000b94:	e3 ff ff db 	bi 2000b00 <MicoISRHandler+0x58>

02000b98 <EE_std_change_context>:
 2000b98:	3c 22 00 02 	sli r2,r1,2
 2000b9c:	78 03 02 00 	mvhi r3,0x200
 2000ba0:	38 63 a2 68 	ori r3,r3,0xa268
 2000ba4:	b4 62 10 00 	add r2,r3,r2
 2000ba8:	28 42 00 04 	lw r2,(r2+4)
 2000bac:	78 03 02 00 	mvhi r3,0x200
 2000bb0:	38 63 b3 18 	ori r3,r3,0xb318
 2000bb4:	28 64 00 00 	lw r4,(r3+0)
 2000bb8:	44 44 00 2e 	be r2,r4,2000c70 <_end_change_stacks>
 2000bbc:	5b 9d ff bc 	sw (sp+-68),ra
 2000bc0:	5b 9b ff c0 	sw (sp+-64),fp
 2000bc4:	5b 9a ff c4 	sw (sp+-60),gp
 2000bc8:	5b 99 ff c8 	sw (sp+-56),r25
 2000bcc:	5b 98 ff cc 	sw (sp+-52),r24
 2000bd0:	5b 97 ff d0 	sw (sp+-48),r23
 2000bd4:	5b 96 ff d4 	sw (sp+-44),r22
 2000bd8:	5b 95 ff d8 	sw (sp+-40),r21
 2000bdc:	5b 94 ff dc 	sw (sp+-36),r20
 2000be0:	5b 93 ff e0 	sw (sp+-32),r19
 2000be4:	5b 92 ff e4 	sw (sp+-28),r18
 2000be8:	5b 91 ff e8 	sw (sp+-24),r17
 2000bec:	5b 90 ff ec 	sw (sp+-20),r16
 2000bf0:	5b 8f ff f0 	sw (sp+-16),r15
 2000bf4:	5b 8e ff f4 	sw (sp+-12),r14
 2000bf8:	5b 8d ff f8 	sw (sp+-8),r13
 2000bfc:	5b 8c ff fc 	sw (sp+-4),r12
 2000c00:	5b 8b 00 00 	sw (sp+0),r11
 2000c04:	78 05 02 00 	mvhi r5,0x200
 2000c08:	38 a5 aa 98 	ori r5,r5,0xaa98
 2000c0c:	3c 84 00 02 	sli r4,r4,2
 2000c10:	b4 a4 20 00 	add r4,r5,r4
 2000c14:	58 9c 00 00 	sw (r4+0),sp
 2000c18:	58 62 00 00 	sw (r3+0),r2
 2000c1c:	3c 42 00 02 	sli r2,r2,2
 2000c20:	b4 a2 10 00 	add r2,r5,r2
 2000c24:	28 5c 00 00 	lw sp,(r2+0)
 2000c28:	2b 9d ff bc 	lw ra,(sp+-68)
 2000c2c:	2b 9b ff c0 	lw fp,(sp+-64)
 2000c30:	2b 9a ff c4 	lw gp,(sp+-60)
 2000c34:	2b 99 ff c8 	lw r25,(sp+-56)
 2000c38:	2b 98 ff cc 	lw r24,(sp+-52)
 2000c3c:	2b 97 ff d0 	lw r23,(sp+-48)
 2000c40:	2b 96 ff d4 	lw r22,(sp+-44)
 2000c44:	2b 95 ff d8 	lw r21,(sp+-40)
 2000c48:	2b 94 ff dc 	lw r20,(sp+-36)
 2000c4c:	2b 93 ff e0 	lw r19,(sp+-32)
 2000c50:	2b 92 ff e4 	lw r18,(sp+-28)
 2000c54:	2b 91 ff e8 	lw r17,(sp+-24)
 2000c58:	2b 90 ff ec 	lw r16,(sp+-20)
 2000c5c:	2b 8f ff f0 	lw r15,(sp+-16)
 2000c60:	2b 8e ff f4 	lw r14,(sp+-12)
 2000c64:	2b 8d ff f8 	lw r13,(sp+-8)
 2000c68:	2b 8c ff fc 	lw r12,(sp+-4)
 2000c6c:	2b 8b 00 00 	lw r11,(sp+0)

02000c70 <_end_change_stacks>:
 2000c70:	48 01 00 07 	bg r0,r1,2000c8c <_end_run_thread>
 2000c74:	37 9c ff fc 	addi sp,sp,-4
 2000c78:	5b 9d 00 04 	sw (sp+4),ra
 2000c7c:	f8 00 03 13 	calli 20018c8 <EE_std_run_task_code>
 2000c80:	2b 9d 00 04 	lw ra,(sp+4)
 2000c84:	37 9c 00 04 	addi sp,sp,4
 2000c88:	e3 ff ff c4 	bi 2000b98 <EE_std_change_context>

02000c8c <_end_run_thread>:
 2000c8c:	c3 a0 00 00 	ret

02000c90 <EE_IRQ_end_instance>:
   If the HAL allow IRQ nesting the C_end_instance should work as follows:
   - it must implement the preemption test only if it is the last IRQ on the stack
   - if there are other interrupts on the stack the IRQ end_instance should do nothing
*/
void EE_IRQ_end_instance(void)
{
 2000c90:	37 9c ff fc 	addi sp,sp,-4
 2000c94:	5b 9d 00 04 	sw (sp+4),ra

/* return the first ready task without extracting it */
#ifndef __PRIVATE_RQ_QUERYFIRST__
__INLINE__ EE_TID __ALWAYS_INLINE__ EE_rq_queryfirst(void)
{
    return EE_rqfirst;  
 2000c98:	78 01 02 00 	mvhi r1,0x200
 2000c9c:	38 21 a8 2c 	ori r1,r1,0xa82c
 2000ca0:	28 21 00 00 	lw r1,(r1+0)
    register EE_TID t;

    t = EE_rq_queryfirst();
    if (t != EE_NIL && EE_sys_ceiling < EE_th_ready_prio[t]) {
 2000ca4:	34 02 ff ff 	mvi r2,-1
 2000ca8:	44 22 00 22 	be r1,r2,2000d30 <EE_IRQ_end_instance+0xa0>
 2000cac:	3c 24 00 02 	sli r4,r1,2
 2000cb0:	78 01 02 00 	mvhi r1,0x200
 2000cb4:	38 21 a2 60 	ori r1,r1,0xa260
 2000cb8:	78 05 02 00 	mvhi r5,0x200
 2000cbc:	38 a5 b3 14 	ori r5,r5,0xb314
 2000cc0:	b4 24 08 00 	add r1,r1,r4
 2000cc4:	28 22 00 00 	lw r2,(r1+0)
 2000cc8:	28 a6 00 00 	lw r6,(r5+0)
 2000ccc:	50 c2 00 19 	bgeu r6,r2,2000d30 <EE_IRQ_end_instance+0xa0>
      register int flag;

      flag = EE_th_status[t] & EE_WASSTACKED;
#endif

      EE_sys_ceiling |= EE_th_dispatch_prio[t];
 2000cd0:	78 02 02 00 	mvhi r2,0x200
 2000cd4:	38 42 a2 64 	ori r2,r2,0xa264
    t = EE_rq_queryfirst();
    if (t != EE_NIL && EE_sys_ceiling < EE_th_ready_prio[t]) {
#if defined(__MULTI__)
      register int flag;

      flag = EE_th_status[t] & EE_WASSTACKED;
 2000cd8:	78 03 02 00 	mvhi r3,0x200
#endif

      EE_sys_ceiling |= EE_th_dispatch_prio[t];
 2000cdc:	b4 44 10 00 	add r2,r2,r4
    t = EE_rq_queryfirst();
    if (t != EE_NIL && EE_sys_ceiling < EE_th_ready_prio[t]) {
#if defined(__MULTI__)
      register int flag;

      flag = EE_th_status[t] & EE_WASSTACKED;
 2000ce0:	38 63 a8 20 	ori r3,r3,0xa820
 2000ce4:	b4 64 18 00 	add r3,r3,r4
#endif

      EE_sys_ceiling |= EE_th_dispatch_prio[t];
 2000ce8:	28 41 00 00 	lw r1,(r2+0)
    t = EE_rq_queryfirst();
    if (t != EE_NIL && EE_sys_ceiling < EE_th_ready_prio[t]) {
#if defined(__MULTI__)
      register int flag;

      flag = EE_th_status[t] & EE_WASSTACKED;
 2000cec:	28 64 00 00 	lw r4,(r3+0)
#endif

      EE_sys_ceiling |= EE_th_dispatch_prio[t];

#if defined(__MULTI__) || defined(__WITH_STATUS__)
      EE_th_status[t] = EE_STACKED;
 2000cf0:	34 02 00 02 	mvi r2,2
      register int flag;

      flag = EE_th_status[t] & EE_WASSTACKED;
#endif

      EE_sys_ceiling |= EE_th_dispatch_prio[t];
 2000cf4:	b8 26 08 00 	or r1,r1,r6
 2000cf8:	58 a1 00 00 	sw (r5+0),r1

#if defined(__MULTI__) || defined(__WITH_STATUS__)
      EE_th_status[t] = EE_STACKED;
 2000cfc:	58 62 00 00 	sw (r3+0),r2
    t = EE_rq_queryfirst();
    if (t != EE_NIL && EE_sys_ceiling < EE_th_ready_prio[t]) {
#if defined(__MULTI__)
      register int flag;

      flag = EE_th_status[t] & EE_WASSTACKED;
 2000d00:	20 84 00 08 	andi r4,r4,0x8
#if defined(__MULTI__) || defined(__WITH_STATUS__)
      EE_th_status[t] = EE_STACKED;
#endif

#if defined(__MULTI__)
      if (flag)
 2000d04:	44 80 00 17 	be r4,r0,2000d60 <EE_IRQ_end_instance+0xd0>
	EE_hal_IRQ_stacked(EE_rq2stk_exchange());
 2000d08:	f8 00 00 1d 	calli 2000d7c <EE_rq2stk_exchange>
}


__INLINE__ void __ALWAYS_INLINE__ EE_hal_endcycle_stacked(EE_TID tid)
{
    EE_std_endcycle_next_tid = EE_std_mark_tid_stacked(tid);
 2000d0c:	78 02 80 00 	mvhi r2,0x8000
 2000d10:	38 42 00 00 	ori r2,r2,0x0
 2000d14:	78 03 02 00 	mvhi r3,0x200
 2000d18:	b8 22 08 00 	or r1,r1,r2
 2000d1c:	38 63 b5 b8 	ori r3,r3,0xb5b8
 2000d20:	58 61 00 00 	sw (r3+0),r1
      EE_hal_IRQ_ready(EE_rq2stk_exchange());
#endif
    } else {
      EE_hal_IRQ_stacked(EE_stk_queryfirst());
    }
}
 2000d24:	2b 9d 00 04 	lw ra,(sp+4)
 2000d28:	37 9c 00 04 	addi sp,sp,4
 2000d2c:	c3 a0 00 00 	ret
 2000d30:	78 01 02 00 	mvhi r1,0x200
 2000d34:	38 21 a8 28 	ori r1,r1,0xa828
 2000d38:	28 23 00 00 	lw r3,(r1+0)
 2000d3c:	78 02 80 00 	mvhi r2,0x8000
 2000d40:	38 42 00 00 	ori r2,r2,0x0
 2000d44:	78 01 02 00 	mvhi r1,0x200
 2000d48:	b8 62 18 00 	or r3,r3,r2
 2000d4c:	38 21 b5 b8 	ori r1,r1,0xb5b8
 2000d50:	58 23 00 00 	sw (r1+0),r3
 2000d54:	2b 9d 00 04 	lw ra,(sp+4)
 2000d58:	37 9c 00 04 	addi sp,sp,4
 2000d5c:	c3 a0 00 00 	ret

#if defined(__MULTI__)
      if (flag)
	EE_hal_IRQ_stacked(EE_rq2stk_exchange());
      else
	EE_hal_IRQ_ready(EE_rq2stk_exchange());
 2000d60:	f8 00 00 07 	calli 2000d7c <EE_rq2stk_exchange>
}


__INLINE__ void __ALWAYS_INLINE__ EE_hal_endcycle_ready(EE_TID tid)
{
    EE_std_endcycle_next_tid = tid;
 2000d64:	78 02 02 00 	mvhi r2,0x200
 2000d68:	38 42 b5 b8 	ori r2,r2,0xb5b8
 2000d6c:	58 41 00 00 	sw (r2+0),r1
      EE_hal_IRQ_ready(EE_rq2stk_exchange());
#endif
    } else {
      EE_hal_IRQ_stacked(EE_stk_queryfirst());
    }
}
 2000d70:	2b 9d 00 04 	lw ra,(sp+4)
 2000d74:	37 9c 00 04 	addi sp,sp,4
 2000d78:	c3 a0 00 00 	ret

02000d7c <EE_rq2stk_exchange>:

#include "ee_internal.h"

#ifndef __PRIVATE_RQ2STK_EXCHANGE__
EE_TID EE_rq2stk_exchange(void)
{
 2000d7c:	78 04 02 00 	mvhi r4,0x200
 2000d80:	38 84 a8 2c 	ori r4,r4,0xa82c
 2000d84:	28 81 00 00 	lw r1,(r4+0)
  EE_TID temp;

  temp = EE_rqfirst;
  
  // extract the first task from the ready queue
  EE_rqfirst = EE_th_next[temp]; 
 2000d88:	78 02 02 00 	mvhi r2,0x200
 2000d8c:	38 42 a8 24 	ori r2,r2,0xa824
 2000d90:	3c 25 00 02 	sli r5,r1,2
  // insert the extracted task on the topo of the stack
  EE_th_next[temp] = EE_stkfirst;
 2000d94:	78 03 02 00 	mvhi r3,0x200
  EE_TID temp;

  temp = EE_rqfirst;
  
  // extract the first task from the ready queue
  EE_rqfirst = EE_th_next[temp]; 
 2000d98:	b4 45 10 00 	add r2,r2,r5
 2000d9c:	28 45 00 00 	lw r5,(r2+0)
  // insert the extracted task on the topo of the stack
  EE_th_next[temp] = EE_stkfirst;
 2000da0:	38 63 a8 28 	ori r3,r3,0xa828
  EE_TID temp;

  temp = EE_rqfirst;
  
  // extract the first task from the ready queue
  EE_rqfirst = EE_th_next[temp]; 
 2000da4:	58 85 00 00 	sw (r4+0),r5
  // insert the extracted task on the topo of the stack
  EE_th_next[temp] = EE_stkfirst;
 2000da8:	28 64 00 00 	lw r4,(r3+0)
  EE_stkfirst = temp;
 2000dac:	58 61 00 00 	sw (r3+0),r1
  temp = EE_rqfirst;
  
  // extract the first task from the ready queue
  EE_rqfirst = EE_th_next[temp]; 
  // insert the extracted task on the topo of the stack
  EE_th_next[temp] = EE_stkfirst;
 2000db0:	58 44 00 00 	sw (r2+0),r4
  EE_stkfirst = temp;

  return temp;
}
 2000db4:	c3 a0 00 00 	ret

02000db8 <EE_fp_ActivateTask>:
#include "ee_internal.h"

#ifndef __PRIVATE_ACTIVATETASK__

void EE_fp_ActivateTask(EE_TID t)
{
 2000db8:	37 9c ff ec 	addi sp,sp,-20
 2000dbc:	5b 8b 00 14 	sw (sp+20),r11
 2000dc0:	5b 8c 00 10 	sw (sp+16),r12
 2000dc4:	5b 8d 00 0c 	sw (sp+12),r13
 2000dc8:	5b 8e 00 08 	sw (sp+8),r14
 2000dcc:	5b 9d 00 04 	sw (sp+4),ra
 2000dd0:	b8 20 20 00 	mv r4,r1
 * Disable interrupts
 */
__INLINE__ EE_FREG __ALWAYS_INLINE__ EE_mico32_disableIRQ(void)
{
    EE_FREG oldie, newie;
    asm volatile ("rcsr %0,ie":"=r"(oldie));
 2000dd4:	90 00 70 00 	rcsr r14,IE
    newie = oldie & (~0x1);
    asm volatile ("wcsr ie, %0"::"r"(newie));
 2000dd8:	34 01 ff fe 	mvi r1,-2
 2000ddc:	a1 c1 08 00 	and r1,r14,r1
 2000de0:	d0 01 00 00 	wcsr IE,r1
#endif
    
    flag = EE_hal_begin_nested_primitive();
    
    /* check for first activation */
    if (EE_th_nact[t] == 0) {
 2000de4:	78 0b 02 00 	mvhi r11,0x200
 2000de8:	3c 8c 00 02 	sli r12,r4,2
 2000dec:	39 6b b5 28 	ori r11,r11,0xb528
 2000df0:	b5 6c 68 00 	add r13,r11,r12
 2000df4:	29 a3 00 00 	lw r3,(r13+0)
 2000df8:	44 60 00 37 	be r3,r0,2000ed4 <EE_fp_ActivateTask+0x11c>
#endif
      EE_rq_insert(t);
    }
    
    /* activate the task avoiding the counter wraparound */
    if (EE_th_nact[t] != EE_MAX_NACT)
 2000dfc:	34 01 ff ff 	mvi r1,-1
 2000e00:	44 61 00 04 	be r3,r1,2000e10 <EE_fp_ActivateTask+0x58>
      EE_th_nact[t] ++;
 2000e04:	b5 6c 10 00 	add r2,r11,r12
 2000e08:	34 61 00 01 	addi r1,r3,1
 2000e0c:	58 41 00 00 	sw (r2+0),r1
    
    /* check for preemption */
    if (!EE_hal_get_IRQ_nesting_level()) {
 2000e10:	78 01 02 00 	mvhi r1,0x200
 2000e14:	38 21 b5 b4 	ori r1,r1,0xb5b4
 2000e18:	28 22 00 00 	lw r2,(r1+0)
 2000e1c:	5c 40 00 22 	bne r2,r0,2000ea4 <EE_fp_ActivateTask+0xec>
 2000e20:	78 01 02 00 	mvhi r1,0x200
 2000e24:	38 21 a8 2c 	ori r1,r1,0xa82c
 2000e28:	28 21 00 00 	lw r1,(r1+0)
      tmp = EE_rq_queryfirst();
      if (tmp != EE_NIL) {
 2000e2c:	34 02 ff ff 	mvi r2,-1
 2000e30:	44 22 00 1d 	be r1,r2,2000ea4 <EE_fp_ActivateTask+0xec>
	if (EE_sys_ceiling < EE_th_ready_prio[tmp]) {
 2000e34:	3c 23 00 02 	sli r3,r1,2
 2000e38:	78 01 02 00 	mvhi r1,0x200
 2000e3c:	38 21 a2 60 	ori r1,r1,0xa260
 2000e40:	78 05 02 00 	mvhi r5,0x200
 2000e44:	38 a5 b3 14 	ori r5,r5,0xb314
 2000e48:	b4 23 08 00 	add r1,r1,r3
 2000e4c:	28 22 00 00 	lw r2,(r1+0)
 2000e50:	28 a6 00 00 	lw r6,(r5+0)
 2000e54:	50 c2 00 14 	bgeu r6,r2,2000ea4 <EE_fp_ActivateTask+0xec>
	  
#if defined(__MULTI__) || defined(__WITH_STATUS__)
	  EE_th_status[tmp] = EE_STACKED;
#endif
	  
	  EE_sys_ceiling |= EE_th_dispatch_prio[tmp];
 2000e58:	78 01 02 00 	mvhi r1,0x200
 2000e5c:	38 21 a2 64 	ori r1,r1,0xa264
      if (tmp != EE_NIL) {
	if (EE_sys_ceiling < EE_th_ready_prio[tmp]) {
#if defined(__MULTI__)
	  register int wasstacked;
	  
	  wasstacked = EE_th_status[tmp] & EE_WASSTACKED;
 2000e60:	78 02 02 00 	mvhi r2,0x200
	  
#if defined(__MULTI__) || defined(__WITH_STATUS__)
	  EE_th_status[tmp] = EE_STACKED;
#endif
	  
	  EE_sys_ceiling |= EE_th_dispatch_prio[tmp];
 2000e64:	b4 23 08 00 	add r1,r1,r3
      if (tmp != EE_NIL) {
	if (EE_sys_ceiling < EE_th_ready_prio[tmp]) {
#if defined(__MULTI__)
	  register int wasstacked;
	  
	  wasstacked = EE_th_status[tmp] & EE_WASSTACKED;
 2000e68:	38 42 a8 20 	ori r2,r2,0xa820
 2000e6c:	b4 43 10 00 	add r2,r2,r3
	  
#if defined(__MULTI__) || defined(__WITH_STATUS__)
	  EE_th_status[tmp] = EE_STACKED;
#endif
	  
	  EE_sys_ceiling |= EE_th_dispatch_prio[tmp];
 2000e70:	28 23 00 00 	lw r3,(r1+0)
      if (tmp != EE_NIL) {
	if (EE_sys_ceiling < EE_th_ready_prio[tmp]) {
#if defined(__MULTI__)
	  register int wasstacked;
	  
	  wasstacked = EE_th_status[tmp] & EE_WASSTACKED;
 2000e74:	28 44 00 00 	lw r4,(r2+0)
#endif
	  
#if defined(__MULTI__) || defined(__WITH_STATUS__)
	  EE_th_status[tmp] = EE_STACKED;
 2000e78:	34 01 00 02 	mvi r1,2
#endif
	  
	  EE_sys_ceiling |= EE_th_dispatch_prio[tmp];
 2000e7c:	b8 66 18 00 	or r3,r3,r6
	  
	  wasstacked = EE_th_status[tmp] & EE_WASSTACKED;
#endif
	  
#if defined(__MULTI__) || defined(__WITH_STATUS__)
	  EE_th_status[tmp] = EE_STACKED;
 2000e80:	58 41 00 00 	sw (r2+0),r1
#endif
	  
	  EE_sys_ceiling |= EE_th_dispatch_prio[tmp];
 2000e84:	58 a3 00 00 	sw (r5+0),r3
      if (tmp != EE_NIL) {
	if (EE_sys_ceiling < EE_th_ready_prio[tmp]) {
#if defined(__MULTI__)
	  register int wasstacked;
	  
	  wasstacked = EE_th_status[tmp] & EE_WASSTACKED;
 2000e88:	20 84 00 08 	andi r4,r4,0x8
#endif
	  
	  EE_sys_ceiling |= EE_th_dispatch_prio[tmp];
	  
#if defined(__MULTI__)
	  if (wasstacked)
 2000e8c:	44 80 00 1b 	be r4,r0,2000ef8 <EE_fp_ActivateTask+0x140>
	    EE_hal_stkchange(EE_rq2stk_exchange());
 2000e90:	fb ff ff bb 	calli 2000d7c <EE_rq2stk_exchange>
#define EE_std_need_context_change(tid) (((tid) >= 0) || \
(EE_hal_active_tos != EE_std_thread_tos[tid+1]))

__INLINE__ void __ALWAYS_INLINE__ EE_hal_stkchange(EE_TID tid)
{
    EE_std_change_context(EE_std_mark_tid_stacked(tid));
 2000e94:	78 02 80 00 	mvhi r2,0x8000
 2000e98:	38 42 00 00 	ori r2,r2,0x0
 2000e9c:	b8 22 08 00 	or r1,r1,r2
 2000ea0:	fb ff ff 3e 	calli 2000b98 <EE_std_change_context>

/* Called as _last_ function of a primitive that can be called in
   an IRQ and in a task.  Enable IRQs if they were enabled before entering. */
__INLINE__ void __ALWAYS_INLINE__ EE_hal_end_nested_primitive(EE_FREG f)
{
    if (EE_mico32_are_IRQs_enabled(f))
 2000ea4:	21 c1 00 01 	andi r1,r14,0x1
 2000ea8:	44 20 00 04 	be r1,r0,2000eb8 <EE_fp_ActivateTask+0x100>
 * Enable interrupts
 */
__INLINE__ void __ALWAYS_INLINE__ EE_mico32_enableIRQ(void)
{
    EE_FREG oldie, newie;
    asm volatile ("rcsr %0,ie":"=r"(oldie));
 2000eac:	90 00 08 00 	rcsr r1,IE
    newie = oldie | (0x1);
    asm volatile ("wcsr ie, %0"::"r"(newie));
 2000eb0:	38 21 00 01 	ori r1,r1,0x1
 2000eb4:	d0 01 00 00 	wcsr IE,r1
    EE_hal_end_nested_primitive(flag);
    
#ifdef __RN_TASK__
  }
#endif
}
 2000eb8:	2b 9d 00 04 	lw ra,(sp+4)
 2000ebc:	2b 8b 00 14 	lw r11,(sp+20)
 2000ec0:	2b 8c 00 10 	lw r12,(sp+16)
 2000ec4:	2b 8d 00 0c 	lw r13,(sp+12)
 2000ec8:	2b 8e 00 08 	lw r14,(sp+8)
 2000ecc:	37 9c 00 14 	addi sp,sp,20
 2000ed0:	c3 a0 00 00 	ret
    flag = EE_hal_begin_nested_primitive();
    
    /* check for first activation */
    if (EE_th_nact[t] == 0) {
#if defined(__MULTI__) || defined(__WITH_STATUS__)
      EE_th_status[t] = EE_READY;
 2000ed4:	78 02 02 00 	mvhi r2,0x200
 2000ed8:	38 42 a8 20 	ori r2,r2,0xa820
 2000edc:	34 03 00 01 	mvi r3,1
 2000ee0:	b4 4c 10 00 	add r2,r2,r12
 2000ee4:	58 43 00 00 	sw (r2+0),r3
#endif
      EE_rq_insert(t);
 2000ee8:	b8 80 08 00 	mv r1,r4
 2000eec:	f8 00 02 8d 	calli 2001920 <EE_rq_insert>
 2000ef0:	29 a3 00 00 	lw r3,(r13+0)
 2000ef4:	e3 ff ff c2 	bi 2000dfc <EE_fp_ActivateTask+0x44>
	  
#if defined(__MULTI__)
	  if (wasstacked)
	    EE_hal_stkchange(EE_rq2stk_exchange());
	  else
	    EE_hal_ready2stacked(EE_rq2stk_exchange());
 2000ef8:	fb ff ff a1 	calli 2000d7c <EE_rq2stk_exchange>
 * version, all the stack-related stuff is ignored. */


__INLINE__ void EE_hal_ready2stacked(EE_TID tid)
{
    EE_std_change_context(tid);
 2000efc:	fb ff ff 27 	calli 2000b98 <EE_std_change_context>
 2000f00:	e3 ff ff e9 	bi 2000ea4 <EE_fp_ActivateTask+0xec>

02000f04 <EE_hal_uart_enable_tx_ISR>:
	
	return EE_UART_OK;
}

int EE_hal_uart_enable_tx_ISR(EE_uart_st* usp)
{
 2000f04:	28 25 00 08 	lw r5,(r1+8)
	unsigned int intst, mode = usp->mode;;
 2000f08:	28 23 00 04 	lw r3,(r1+4)
 * Disable interrupts
 */
__INLINE__ EE_FREG __ALWAYS_INLINE__ EE_mico32_disableIRQ(void)
{
    EE_FREG oldie, newie;
    asm volatile ("rcsr %0,ie":"=r"(oldie));
 2000f0c:	90 00 20 00 	rcsr r4,IE
    newie = oldie & (~0x1);
    asm volatile ("wcsr ie, %0"::"r"(newie));
 2000f10:	34 01 ff fe 	mvi r1,-2
 2000f14:	a0 81 08 00 	and r1,r4,r1
 2000f18:	d0 01 00 00 	wcsr IE,r1
	MicoUart_t *uartc = usp->base; 
	
	intst = EE_mico32_disableIRQ();				
	ee_uart_tip = 1;								// transmission in progress...
 2000f1c:	78 02 02 00 	mvhi r2,0x200
 2000f20:	34 01 00 01 	mvi r1,1
 2000f24:	38 42 b3 1c 	ori r2,r2,0xb31c
 2000f28:	58 41 00 00 	sw (r2+0),r1
	if(EE_uart_enabled_rx_int(mode))
 2000f2c:	a0 61 18 00 	and r3,r3,r1
 2000f30:	44 60 00 0a 	be r3,r0,2000f58 <EE_hal_uart_enable_tx_ISR+0x54>
		uartc->ier = (volatile unsigned int)(MICOUART_IER_RX_INT_MASK | MICOUART_IER_TX_INT_MASK);
 2000f34:	34 01 00 03 	mvi r1,3
 2000f38:	58 a1 00 04 	sw (r5+4),r1
	else
		uartc->ier = (volatile unsigned int)(MICOUART_IER_TX_INT_MASK);	// Enable interrupts to empty the tx buffer...
	if (EE_mico32_are_IRQs_enabled(intst))		
 2000f3c:	20 81 00 01 	andi r1,r4,0x1
 2000f40:	44 20 00 04 	be r1,r0,2000f50 <EE_hal_uart_enable_tx_ISR+0x4c>
 * Enable interrupts
 */
__INLINE__ void __ALWAYS_INLINE__ EE_mico32_enableIRQ(void)
{
    EE_FREG oldie, newie;
    asm volatile ("rcsr %0,ie":"=r"(oldie));
 2000f44:	90 00 08 00 	rcsr r1,IE
    newie = oldie | (0x1);
    asm volatile ("wcsr ie, %0"::"r"(newie));
 2000f48:	38 21 00 01 	ori r1,r1,0x1
 2000f4c:	d0 01 00 00 	wcsr IE,r1
	   	EE_mico32_enableIRQ();
	   	
	return EE_UART_OK;	
}
 2000f50:	34 01 00 00 	mvi r1,0
 2000f54:	c3 a0 00 00 	ret
	intst = EE_mico32_disableIRQ();				
	ee_uart_tip = 1;								// transmission in progress...
	if(EE_uart_enabled_rx_int(mode))
		uartc->ier = (volatile unsigned int)(MICOUART_IER_RX_INT_MASK | MICOUART_IER_TX_INT_MASK);
	else
		uartc->ier = (volatile unsigned int)(MICOUART_IER_TX_INT_MASK);	// Enable interrupts to empty the tx buffer...
 2000f58:	34 01 00 02 	mvi r1,2
 2000f5c:	58 a1 00 04 	sw (r5+4),r1
 2000f60:	e3 ff ff f7 	bi 2000f3c <EE_hal_uart_enable_tx_ISR+0x38>

02000f64 <EE_hal_uart_write_buffer>:
	- isr mode:
		- blocking mode: wait if a transmission is in progress or if buffer is full, return the number of bytes loaded (should be loaded all characters...)
		- no-blocking mode: no wait if buffer is full or if a transmission is in progress, return the number of bytes loaded
*/
int EE_hal_uart_write_buffer(EE_uart_st* usp, EE_UINT8 *vet, int len)
{
 2000f64:	37 9c ff dc 	addi sp,sp,-36
 2000f68:	5b 8b 00 24 	sw (sp+36),r11
 2000f6c:	5b 8c 00 20 	sw (sp+32),r12
 2000f70:	5b 8d 00 1c 	sw (sp+28),r13
 2000f74:	5b 8e 00 18 	sw (sp+24),r14
 2000f78:	5b 8f 00 14 	sw (sp+20),r15
 2000f7c:	5b 90 00 10 	sw (sp+16),r16
 2000f80:	5b 91 00 0c 	sw (sp+12),r17
 2000f84:	5b 92 00 08 	sw (sp+8),r18
 2000f88:	5b 9d 00 04 	sw (sp+4),ra
	int ret,i;
  
	MicoUart_t *uartc = usp->base; 
	
	buffer = &usp->txbuf;
	mode = usp->mode;
 2000f8c:	28 25 00 04 	lw r5,(r1+4)
	- isr mode:
		- blocking mode: wait if a transmission is in progress or if buffer is full, return the number of bytes loaded (should be loaded all characters...)
		- no-blocking mode: no wait if buffer is full or if a transmission is in progress, return the number of bytes loaded
*/
int EE_hal_uart_write_buffer(EE_uart_st* usp, EE_UINT8 *vet, int len)
{
 2000f90:	b8 20 60 00 	mv r12,r1
 2000f94:	b8 40 78 00 	mv r15,r2
	MicoUart_t *uartc = usp->base; 
	
	buffer = &usp->txbuf;
	mode = usp->mode;
	
	if( EE_uart_tx_polling(mode) )							// TX POLLING MODE
 2000f98:	20 a1 00 02 	andi r1,r5,0x2
	- isr mode:
		- blocking mode: wait if a transmission is in progress or if buffer is full, return the number of bytes loaded (should be loaded all characters...)
		- no-blocking mode: no wait if buffer is full or if a transmission is in progress, return the number of bytes loaded
*/
int EE_hal_uart_write_buffer(EE_uart_st* usp, EE_UINT8 *vet, int len)
{
 2000f9c:	b8 60 70 00 	mv r14,r3
	unsigned int uiValue, mode;
	EE_buffer* buffer;
	int ret,i;
  
	MicoUart_t *uartc = usp->base; 
 2000fa0:	29 84 00 08 	lw r4,(r12+8)
	
	buffer = &usp->txbuf;
 2000fa4:	35 90 00 30 	addi r16,r12,48
	mode = usp->mode;
	
	if( EE_uart_tx_polling(mode) )							// TX POLLING MODE
 2000fa8:	44 20 00 0f 	be r1,r0,2000fe4 <EE_hal_uart_write_buffer+0x80>
		}
		ret = len;											// all bytes transmitted... 
	}
	else
	{	// if there is no transmission in progress or there is a transmission in progress but we are in blocking mode
		if( !ee_uart_tip || (ee_uart_tip && EE_uart_tx_block(mode)) )
 2000fac:	78 0d 02 00 	mvhi r13,0x200
 2000fb0:	39 ad b3 1c 	ori r13,r13,0xb31c
 2000fb4:	29 a1 00 00 	lw r1,(r13+0)
 2000fb8:	5c 20 00 35 	bne r1,r0,200108c <EE_hal_uart_write_buffer+0x128>
		{																																			
			while(ee_uart_tip)
 2000fbc:	29 a1 00 00 	lw r1,(r13+0)
 2000fc0:	5c 20 ff ff 	bne r1,r0,2000fbc <EE_hal_uart_write_buffer+0x58>
				;								// wait until transmission is finished...
			for(i=0; i<len; i++)
 2000fc4:	b8 20 58 00 	mv r11,r1
				if(ret == EE_BUF_OK)						// byte loaded in the tx buffer... 
					usp->err = ret; 
				else
				{
					usp->err = EE_UART_ERR_TX_BUF_FULL;
					if(!EE_uart_tx_block(mode))
 2000fc8:	20 b1 00 20 	andi r17,r5,0x20
				ret = EE_buffer_putmsg(buffer, vet+i);
				if(ret == EE_BUF_OK)						// byte loaded in the tx buffer... 
					usp->err = ret; 
				else
				{
					usp->err = EE_UART_ERR_TX_BUF_FULL;
 2000fcc:	34 12 ff f9 	mvi r18,-7
	{	// if there is no transmission in progress or there is a transmission in progress but we are in blocking mode
		if( !ee_uart_tip || (ee_uart_tip && EE_uart_tx_block(mode)) )
		{																																			
			while(ee_uart_tip)
				;								// wait until transmission is finished...
			for(i=0; i<len; i++)
 2000fd0:	49 c1 00 24 	bg r14,r1,2001060 <EE_hal_uart_write_buffer+0xfc>
						while(ee_uart_tip)
							;								// wait until transmission is finished...
					}
				}
			}
			EE_hal_uart_enable_tx_ISR(usp);					// enable tx interrupt
 2000fd4:	b9 80 08 00 	mv r1,r12
 2000fd8:	fb ff ff cb 	calli 2000f04 <EE_hal_uart_enable_tx_ISR>
 2000fdc:	b9 60 08 00 	mv r1,r11
 2000fe0:	e0 00 00 0d 	bi 2001014 <EE_hal_uart_write_buffer+0xb0>
	buffer = &usp->txbuf;
	mode = usp->mode;
	
	if( EE_uart_tx_polling(mode) )							// TX POLLING MODE
	{							
		for(i=0; i<len; i++)
 2000fe4:	4c 23 00 1d 	bge r1,r3,2001058 <EE_hal_uart_write_buffer+0xf4>
 2000fe8:	b8 20 18 00 	mv r3,r1
    				break;
				}
				else if(i==0)
				{											// if TX is not ready because another task uses tx buffer...
					usp->err = EE_UART_ERR_TX_NOT_READY;
					if(!EE_uart_tx_block(mode))				// no bytes transmitted, operation failed...
 2000fec:	20 a5 00 20 	andi r5,r5,0x20
		{
			do
			{
				/* if uart's ready to accept character, send immediately */
    			uiValue = uartc->lsr;
    			if(uiValue & MICOUART_LSR_TX_RDY_MASK)
 2000ff0:	b8 20 38 00 	mv r7,r1
    				usp->err = EE_UART_OK;
    				break;
				}
				else if(i==0)
				{											// if TX is not ready because another task uses tx buffer...
					usp->err = EE_UART_ERR_TX_NOT_READY;
 2000ff4:	34 06 ff f6 	mvi r6,-10
		for(i=0; i<len; i++)
		{
			do
			{
				/* if uart's ready to accept character, send immediately */
    			uiValue = uartc->lsr;
 2000ff8:	28 81 00 14 	lw r1,(r4+20)
    			if(uiValue & MICOUART_LSR_TX_RDY_MASK)
 2000ffc:	20 21 00 20 	andi r1,r1,0x20
 2001000:	5c 20 00 10 	bne r1,r0,2001040 <EE_hal_uart_write_buffer+0xdc>
    				uartc->rxtx = vet[i];					// byte loaded in the uart tx buffer
    				ret = 1;
    				usp->err = EE_UART_OK;
    				break;
				}
				else if(i==0)
 2001004:	5c 61 ff fd 	bne r3,r1,2000ff8 <EE_hal_uart_write_buffer+0x94>
				{											// if TX is not ready because another task uses tx buffer...
					usp->err = EE_UART_ERR_TX_NOT_READY;
 2001008:	59 86 00 00 	sw (r12+0),r6
					if(!EE_uart_tx_block(mode))				// no bytes transmitted, operation failed...
 200100c:	5c a3 ff fb 	bne r5,r3,2000ff8 <EE_hal_uart_write_buffer+0x94>
 2001010:	b8 c0 08 00 	mv r1,r6
		}
	}
	
	// All done!!!
	return ret;
}
 2001014:	2b 9d 00 04 	lw ra,(sp+4)
 2001018:	2b 8b 00 24 	lw r11,(sp+36)
 200101c:	2b 8c 00 20 	lw r12,(sp+32)
 2001020:	2b 8d 00 1c 	lw r13,(sp+28)
 2001024:	2b 8e 00 18 	lw r14,(sp+24)
 2001028:	2b 8f 00 14 	lw r15,(sp+20)
 200102c:	2b 90 00 10 	lw r16,(sp+16)
 2001030:	2b 91 00 0c 	lw r17,(sp+12)
 2001034:	2b 92 00 08 	lw r18,(sp+8)
 2001038:	37 9c 00 24 	addi sp,sp,36
 200103c:	c3 a0 00 00 	ret
			{
				/* if uart's ready to accept character, send immediately */
    			uiValue = uartc->lsr;
    			if(uiValue & MICOUART_LSR_TX_RDY_MASK)
				{
    				uartc->rxtx = vet[i];					// byte loaded in the uart tx buffer
 2001040:	b5 e3 08 00 	add r1,r15,r3
 2001044:	40 22 00 00 	lbu r2,(r1+0)
	buffer = &usp->txbuf;
	mode = usp->mode;
	
	if( EE_uart_tx_polling(mode) )							// TX POLLING MODE
	{							
		for(i=0; i<len; i++)
 2001048:	34 63 00 01 	addi r3,r3,1
			{
				/* if uart's ready to accept character, send immediately */
    			uiValue = uartc->lsr;
    			if(uiValue & MICOUART_LSR_TX_RDY_MASK)
				{
    				uartc->rxtx = vet[i];					// byte loaded in the uart tx buffer
 200104c:	58 82 00 00 	sw (r4+0),r2
    				ret = 1;
    				usp->err = EE_UART_OK;
 2001050:	59 87 00 00 	sw (r12+0),r7
	buffer = &usp->txbuf;
	mode = usp->mode;
	
	if( EE_uart_tx_polling(mode) )							// TX POLLING MODE
	{							
		for(i=0; i<len; i++)
 2001054:	49 c3 ff e9 	bg r14,r3,2000ff8 <EE_hal_uart_write_buffer+0x94>
			EE_hal_uart_enable_tx_ISR(usp);					// enable tx interrupt
	        ret = i;										// number of bytes loaded in the tx buffer
		}
		else												// there is a transmission in progress and we are in non blocking mode
		{
			usp->err = EE_UART_ERR_TX_NOT_READY;
 2001058:	b9 c0 08 00 	mv r1,r14
 200105c:	e3 ff ff ee 	bi 2001014 <EE_hal_uart_write_buffer+0xb0>
		{																																			
			while(ee_uart_tip)
				;								// wait until transmission is finished...
			for(i=0; i<len; i++)
			{
				ret = EE_buffer_putmsg(buffer, vet+i);
 2001060:	ba 00 08 00 	mv r1,r16
 2001064:	b5 eb 10 00 	add r2,r15,r11
 2001068:	f8 00 01 b5 	calli 200173c <EE_buffer_putmsg>
				if(ret == EE_BUF_OK)						// byte loaded in the tx buffer... 
 200106c:	5c 20 00 0d 	bne r1,r0,20010a0 <EE_hal_uart_write_buffer+0x13c>
					usp->err = ret; 
 2001070:	59 81 00 00 	sw (r12+0),r1
	{	// if there is no transmission in progress or there is a transmission in progress but we are in blocking mode
		if( !ee_uart_tip || (ee_uart_tip && EE_uart_tx_block(mode)) )
		{																																			
			while(ee_uart_tip)
				;								// wait until transmission is finished...
			for(i=0; i<len; i++)
 2001074:	35 6b 00 01 	addi r11,r11,1
 2001078:	49 cb ff fa 	bg r14,r11,2001060 <EE_hal_uart_write_buffer+0xfc>
						while(ee_uart_tip)
							;								// wait until transmission is finished...
					}
				}
			}
			EE_hal_uart_enable_tx_ISR(usp);					// enable tx interrupt
 200107c:	b9 80 08 00 	mv r1,r12
 2001080:	fb ff ff a1 	calli 2000f04 <EE_hal_uart_enable_tx_ISR>
 2001084:	b9 60 08 00 	mv r1,r11
 2001088:	e3 ff ff e3 	bi 2001014 <EE_hal_uart_write_buffer+0xb0>
		}
		ret = len;											// all bytes transmitted... 
	}
	else
	{	// if there is no transmission in progress or there is a transmission in progress but we are in blocking mode
		if( !ee_uart_tip || (ee_uart_tip && EE_uart_tx_block(mode)) )
 200108c:	29 a1 00 00 	lw r1,(r13+0)
 2001090:	5c 20 00 0c 	bne r1,r0,20010c0 <EE_hal_uart_write_buffer+0x15c>
			EE_hal_uart_enable_tx_ISR(usp);					// enable tx interrupt
	        ret = i;										// number of bytes loaded in the tx buffer
		}
		else												// there is a transmission in progress and we are in non blocking mode
		{
			usp->err = EE_UART_ERR_TX_NOT_READY;
 2001094:	34 01 ff f6 	mvi r1,-10
 2001098:	59 81 00 00 	sw (r12+0),r1
 200109c:	e3 ff ff de 	bi 2001014 <EE_hal_uart_write_buffer+0xb0>
				ret = EE_buffer_putmsg(buffer, vet+i);
				if(ret == EE_BUF_OK)						// byte loaded in the tx buffer... 
					usp->err = ret; 
				else
				{
					usp->err = EE_UART_ERR_TX_BUF_FULL;
 20010a0:	59 92 00 00 	sw (r12+0),r18
					if(!EE_uart_tx_block(mode))
 20010a4:	46 20 ff cc 	be r17,r0,2000fd4 <EE_hal_uart_write_buffer+0x70>
						break;
					else
					{
						i--;											// restore the previous character...
						EE_hal_uart_enable_tx_ISR(usp);					// enable tx interrupt
 20010a8:	b9 80 08 00 	mv r1,r12
 20010ac:	fb ff ff 96 	calli 2000f04 <EE_hal_uart_enable_tx_ISR>
						while(ee_uart_tip)
 20010b0:	29 a1 00 00 	lw r1,(r13+0)
 20010b4:	5c 20 ff ff 	bne r1,r0,20010b0 <EE_hal_uart_write_buffer+0x14c>
					usp->err = EE_UART_ERR_TX_BUF_FULL;
					if(!EE_uart_tx_block(mode))
						break;
					else
					{
						i--;											// restore the previous character...
 20010b8:	35 6b ff ff 	addi r11,r11,-1
 20010bc:	e3 ff ff ee 	bi 2001074 <EE_hal_uart_write_buffer+0x110>
		}
		ret = len;											// all bytes transmitted... 
	}
	else
	{	// if there is no transmission in progress or there is a transmission in progress but we are in blocking mode
		if( !ee_uart_tip || (ee_uart_tip && EE_uart_tx_block(mode)) )
 20010c0:	20 a1 00 20 	andi r1,r5,0x20
 20010c4:	44 20 ff f4 	be r1,r0,2001094 <EE_hal_uart_write_buffer+0x130>
 20010c8:	e3 ff ff bd 	bi 2000fbc <EE_hal_uart_write_buffer+0x58>

020010cc <EE_hal_uart_config>:
	return EE_UART_OK;
}

/* This function configures UART baudrate and other features (parity, stop bits...) */
int EE_hal_uart_config(EE_uart_st* usp, int baudrate, int settings)
{
 20010cc:	37 9c ff ec 	addi sp,sp,-20
 20010d0:	5b 8b 00 14 	sw (sp+20),r11
 20010d4:	5b 8c 00 10 	sw (sp+16),r12
 20010d8:	5b 8d 00 0c 	sw (sp+12),r13
 20010dc:	5b 8e 00 08 	sw (sp+8),r14
 20010e0:	5b 9d 00 04 	sw (sp+4),ra
	unsigned int iir;
	MicoUart_t *uartc = usp->base; 
 20010e4:	28 2b 00 08 	lw r11,(r1+8)
	
	/* reset ier (isr register) */
    uartc->ier = 0;						// if ier==0 -> POLLING MODE (ATT! is a blocking mode!!!)
 20010e8:	34 0d 00 00 	mvi r13,0
	return EE_UART_OK;
}

/* This function configures UART baudrate and other features (parity, stop bits...) */
int EE_hal_uart_config(EE_uart_st* usp, int baudrate, int settings)
{
 20010ec:	b8 40 70 00 	mv r14,r2
	unsigned int iir;
	MicoUart_t *uartc = usp->base; 
	
	/* reset ier (isr register) */
    uartc->ier = 0;						// if ier==0 -> POLLING MODE (ATT! is a blocking mode!!!)
 20010f0:	59 6d 00 04 	sw (r11+4),r13
/******************************************************************************/
/* This function records ISR handler */
int EE_hal_uart_handler_setup(EE_uart_st* usp)
{
    /* Register IRQ handler */
    EE_mico32_register_ISR(usp->irqf, EE_uart_common_handler);	 
 20010f4:	28 21 00 0c 	lw r1,(r1+12)
	return EE_UART_OK;
}

/* This function configures UART baudrate and other features (parity, stop bits...) */
int EE_hal_uart_config(EE_uart_st* usp, int baudrate, int settings)
{
 20010f8:	b8 60 60 00 	mv r12,r3
/******************************************************************************/
/* This function records ISR handler */
int EE_hal_uart_handler_setup(EE_uart_st* usp)
{
    /* Register IRQ handler */
    EE_mico32_register_ISR(usp->irqf, EE_uart_common_handler);	 
 20010fc:	78 02 02 00 	mvhi r2,0x200
	MicoUart_t *uartc = usp->base; 
	
	/* reset ier (isr register) */
    uartc->ier = 0;						// if ier==0 -> POLLING MODE (ATT! is a blocking mode!!!)
    									// if ier!=0 -> ISR MODE (ATT! is not a blocking mode!!!)
    iir = uartc->iir;					// read iir register to clean ISR flags.	FARE PROVA!!!
 2001100:	29 63 00 08 	lw r3,(r11+8)
/******************************************************************************/
/* This function records ISR handler */
int EE_hal_uart_handler_setup(EE_uart_st* usp)
{
    /* Register IRQ handler */
    EE_mico32_register_ISR(usp->irqf, EE_uart_common_handler);	 
 2001104:	38 42 11 44 	ori r2,r2,0x1144
 2001108:	fb ff fe 4d 	calli 2000a3c <EE_mico32_register_ISR>
	/* Register IRQ handler */
    EE_hal_uart_handler_setup(usp);
	/* set the control register */
    uartc->lcr = settings;    
    /* Calculate clock-divisor */
    uartc->div = (MICO32_CPU_CLOCK_MHZ)/baudrate;
 200110c:	78 01 02 06 	mvhi r1,0x206
    									// if ier!=0 -> ISR MODE (ATT! is not a blocking mode!!!)
    iir = uartc->iir;					// read iir register to clean ISR flags.	FARE PROVA!!!
	/* Register IRQ handler */
    EE_hal_uart_handler_setup(usp);
	/* set the control register */
    uartc->lcr = settings;    
 2001110:	59 6c 00 0c 	sw (r11+12),r12
    /* Calculate clock-divisor */
    uartc->div = (MICO32_CPU_CLOCK_MHZ)/baudrate;
 2001114:	b9 c0 10 00 	mv r2,r14
 2001118:	38 21 cc 80 	ori r1,r1,0xcc80
 200111c:	f8 00 21 66 	calli 20096b4 <__divsi3>
 2001120:	59 61 00 1c 	sw (r11+28),r1
    
    /* ISR management */
    return EE_UART_OK;	//EE_uart_set_ISR_callback_base(base, irq_flag, ie_flag, isr_rx_callback, isr_tx_callback);
}
 2001124:	b9 a0 08 00 	mv r1,r13
 2001128:	2b 9d 00 04 	lw ra,(sp+4)
 200112c:	2b 8b 00 14 	lw r11,(sp+20)
 2001130:	2b 8c 00 10 	lw r12,(sp+16)
 2001134:	2b 8d 00 0c 	lw r13,(sp+12)
 2001138:	2b 8e 00 08 	lw r14,(sp+8)
 200113c:	37 9c 00 14 	addi sp,sp,20
 2001140:	c3 a0 00 00 	ret

02001144 <EE_uart_common_handler>:
/******************************************************************************/
/*                              ISRs                                          */
/******************************************************************************/
// Interrupt common handler:
void EE_uart_common_handler(int level)
{
 2001144:	37 9c ff e4 	addi sp,sp,-28
 2001148:	5b 8b 00 18 	sw (sp+24),r11
 200114c:	5b 8c 00 14 	sw (sp+20),r12
 2001150:	5b 8d 00 10 	sw (sp+16),r13
 2001154:	5b 8e 00 0c 	sw (sp+12),r14
 2001158:	5b 8f 00 08 	sw (sp+8),r15
 200115c:	5b 9d 00 04 	sw (sp+4),ra
    unsigned int spint;
    int ret;
    EE_UINT8 data = 0;
    
    EE_uart_st *usp = EE_get_uart_st_from_level(level);
    MicoUart_t *uartc = usp->base; 
 2001160:	78 0e 02 00 	mvhi r14,0x200
 2001164:	39 ce aa a0 	ori r14,r14,0xaaa0
 2001168:	29 cb 00 08 	lw r11,(r14+8)
void EE_uart_common_handler(int level)
{
    unsigned int iir;
    unsigned int spint;
    int ret;
    EE_UINT8 data = 0;
 200116c:	34 01 00 00 	mvi r1,0
 2001170:	33 81 00 1f 	sb (sp+31),r1
    
    EE_uart_st *usp = EE_get_uart_st_from_level(level);
    MicoUart_t *uartc = usp->base; 

    /* interrogate interrupt-cause */
    iir = uartc->iir;
 2001174:	29 62 00 08 	lw r2,(r11+8)
    
    /* check the interrupt source */
    switch(iir){
 2001178:	34 01 00 02 	mvi r1,2
 200117c:	44 41 00 0b 	be r2,r1,20011a8 <EE_uart_common_handler+0x64>
 2001180:	34 01 00 04 	mvi r1,4
 2001184:	44 41 00 31 	be r2,r1,2001248 <EE_uart_common_handler+0x104>
             */
        }break;
    }

    return;
}
 2001188:	2b 9d 00 04 	lw ra,(sp+4)
 200118c:	2b 8b 00 18 	lw r11,(sp+24)
 2001190:	2b 8c 00 14 	lw r12,(sp+20)
 2001194:	2b 8d 00 10 	lw r13,(sp+16)
 2001198:	2b 8e 00 0c 	lw r14,(sp+12)
 200119c:	2b 8f 00 08 	lw r15,(sp+8)
 20011a0:	37 9c 00 1c 	addi sp,sp,28
 20011a4:	c3 a0 00 00 	ret
 20011a8:	35 cc 00 30 	addi r12,r14,48
        }break;
        case MICOUART_IIR_TXRDY:	/* the interrupt is due to tx-data */
		{
			spint = 1;
			/* Loop to empty the buffer */
			while(!EE_buffer_isempty(&(usp->txbuf)))
 20011ac:	b9 80 08 00 	mv r1,r12

    /* interrogate interrupt-cause */
    iir = uartc->iir;
    
    /* check the interrupt source */
    switch(iir){
 20011b0:	34 0d 00 01 	mvi r13,1
		{
			spint = 1;
			/* Loop to empty the buffer */
			while(!EE_buffer_isempty(&(usp->txbuf)))
			{
				EE_buffer_getmsg(&(usp->txbuf), &data);
 20011b4:	37 8f 00 1f 	addi r15,sp,31
        }break;
        case MICOUART_IIR_TXRDY:	/* the interrupt is due to tx-data */
		{
			spint = 1;
			/* Loop to empty the buffer */
			while(!EE_buffer_isempty(&(usp->txbuf)))
 20011b8:	f8 00 01 4e 	calli 20016f0 <EE_buffer_isempty>
 20011bc:	5c 20 00 0d 	bne r1,r0,20011f0 <EE_uart_common_handler+0xac>
			{
				EE_buffer_getmsg(&(usp->txbuf), &data);
 20011c0:	b9 80 08 00 	mv r1,r12
 20011c4:	b9 e0 10 00 	mv r2,r15
 20011c8:	f8 00 01 8f 	calli 2001804 <EE_buffer_getmsg>
				while( !((uartc->lsr) & MICOUART_LSR_TX_RDY_MASK) )
 20011cc:	29 61 00 14 	lw r1,(r11+20)
 20011d0:	20 21 00 20 	andi r1,r1,0x20
 20011d4:	44 20 ff fe 	be r1,r0,20011cc <EE_uart_common_handler+0x88>
					;	
				uartc->rxtx = data;
 20011d8:	43 81 00 1f 	lbu r1,(sp+31)
				if(spint) spint = 0;	// is not a spurious interrupt...
 20011dc:	34 0d 00 00 	mvi r13,0
			while(!EE_buffer_isempty(&(usp->txbuf)))
			{
				EE_buffer_getmsg(&(usp->txbuf), &data);
				while( !((uartc->lsr) & MICOUART_LSR_TX_RDY_MASK) )
					;	
				uartc->rxtx = data;
 20011e0:	59 61 00 00 	sw (r11+0),r1
        }break;
        case MICOUART_IIR_TXRDY:	/* the interrupt is due to tx-data */
		{
			spint = 1;
			/* Loop to empty the buffer */
			while(!EE_buffer_isempty(&(usp->txbuf)))
 20011e4:	b9 80 08 00 	mv r1,r12
 20011e8:	f8 00 01 42 	calli 20016f0 <EE_buffer_isempty>
 20011ec:	44 20 ff f5 	be r1,r0,20011c0 <EE_uart_common_handler+0x7c>
				if(spint) spint = 0;	// is not a spurious interrupt...
			}
			
			/* To avoid interrupt is again asserted by the UART after reading the IIR register, 
	   		   we must to disable TX isr-source. NOTE: Could start spurious tx interrupt... */
	   		if(EE_uart_enabled_rx_int(usp->mode))
 20011f0:	29 c1 00 04 	lw r1,(r14+4)
 20011f4:	20 21 00 01 	andi r1,r1,0x1
 20011f8:	5c 20 00 26 	bne r1,r0,2001290 <EE_uart_common_handler+0x14c>
	   			uartc->ier = (volatile unsigned int)(MICOUART_IER_RX_INT_MASK);
	   		else
				uartc->ier = 0;
 20011fc:	59 61 00 04 	sw (r11+4),r1
			ee_uart_tip = 0;							// transmission not in progress...
				
			/* Call user Callback (not for spurious interrupt...) */
	       	if( (usp->txcbk != EE_NULL_CBK) && (!spint) )
 2001200:	29 c5 00 14 	lw r5,(r14+20)
 2001204:	65 a4 00 00 	cmpei r4,r13,0
	   		   we must to disable TX isr-source. NOTE: Could start spurious tx interrupt... */
	   		if(EE_uart_enabled_rx_int(usp->mode))
	   			uartc->ier = (volatile unsigned int)(MICOUART_IER_RX_INT_MASK);
	   		else
				uartc->ier = 0;
			ee_uart_tip = 0;							// transmission not in progress...
 2001208:	78 01 02 00 	mvhi r1,0x200
				
			/* Call user Callback (not for spurious interrupt...) */
	       	if( (usp->txcbk != EE_NULL_CBK) && (!spint) )
 200120c:	7c a3 00 00 	cmpnei r3,r5,0
	   		   we must to disable TX isr-source. NOTE: Could start spurious tx interrupt... */
	   		if(EE_uart_enabled_rx_int(usp->mode))
	   			uartc->ier = (volatile unsigned int)(MICOUART_IER_RX_INT_MASK);
	   		else
				uartc->ier = 0;
			ee_uart_tip = 0;							// transmission not in progress...
 2001210:	38 21 b3 1c 	ori r1,r1,0xb31c
 2001214:	34 02 00 00 	mvi r2,0
 2001218:	58 22 00 00 	sw (r1+0),r2
				
			/* Call user Callback (not for spurious interrupt...) */
	       	if( (usp->txcbk != EE_NULL_CBK) && (!spint) )
 200121c:	a0 64 18 00 	and r3,r3,r4
 2001220:	44 62 ff da 	be r3,r2,2001188 <EE_uart_common_handler+0x44>
            	usp->txcbk();
 2001224:	d8 a0 00 00 	call r5
             */
        }break;
    }

    return;
}
 2001228:	2b 9d 00 04 	lw ra,(sp+4)
 200122c:	2b 8b 00 18 	lw r11,(sp+24)
 2001230:	2b 8c 00 14 	lw r12,(sp+20)
 2001234:	2b 8d 00 10 	lw r13,(sp+16)
 2001238:	2b 8e 00 0c 	lw r14,(sp+12)
 200123c:	2b 8f 00 08 	lw r15,(sp+8)
 2001240:	37 9c 00 1c 	addi sp,sp,28
 2001244:	c3 a0 00 00 	ret
	         * read lsr to check for errors associated with current word. 
	         * reading lsr clears error bits 
	         */
            //lsr = uartc->lsr;
            //if((lsr & (MICOUART_LSR_PE_MASK | MICOUART_LSR_FE_MASK)) == 0) if(uiValue & MICOUART_LSR_RX_RDY_MASK)
            data = uartc->rxtx;
 2001248:	29 63 00 00 	lw r3,(r11+0)
            ret = EE_buffer_putmsg(&(usp->rxbuf), &data);
 200124c:	37 82 00 1f 	addi r2,sp,31
 2001250:	35 c1 00 18 	addi r1,r14,24
	         * read lsr to check for errors associated with current word. 
	         * reading lsr clears error bits 
	         */
            //lsr = uartc->lsr;
            //if((lsr & (MICOUART_LSR_PE_MASK | MICOUART_LSR_FE_MASK)) == 0) if(uiValue & MICOUART_LSR_RX_RDY_MASK)
            data = uartc->rxtx;
 2001254:	33 83 00 1f 	sb (sp+31),r3
            ret = EE_buffer_putmsg(&(usp->rxbuf), &data);
 2001258:	f8 00 01 39 	calli 200173c <EE_buffer_putmsg>
            if(ret==EE_BUF_ERR_FULL) 
 200125c:	34 02 ff fe 	mvi r2,-2
 2001260:	44 22 00 0f 	be r1,r2,200129c <EE_uart_common_handler+0x158>
				usp->err = EE_UART_ERR_RX_BUF_FULL;  
            /* Call user Callback */
            if(usp->rxcbk != EE_NULL_CBK)
 2001264:	29 c1 00 10 	lw r1,(r14+16)
 2001268:	44 20 ff c8 	be r1,r0,2001188 <EE_uart_common_handler+0x44>
            	usp->rxcbk();
 200126c:	d8 20 00 00 	call r1
             */
        }break;
    }

    return;
}
 2001270:	2b 9d 00 04 	lw ra,(sp+4)
 2001274:	2b 8b 00 18 	lw r11,(sp+24)
 2001278:	2b 8c 00 14 	lw r12,(sp+20)
 200127c:	2b 8d 00 10 	lw r13,(sp+16)
 2001280:	2b 8e 00 0c 	lw r14,(sp+12)
 2001284:	2b 8f 00 08 	lw r15,(sp+8)
 2001288:	37 9c 00 1c 	addi sp,sp,28
 200128c:	c3 a0 00 00 	ret
			}
			
			/* To avoid interrupt is again asserted by the UART after reading the IIR register, 
	   		   we must to disable TX isr-source. NOTE: Could start spurious tx interrupt... */
	   		if(EE_uart_enabled_rx_int(usp->mode))
	   			uartc->ier = (volatile unsigned int)(MICOUART_IER_RX_INT_MASK);
 2001290:	34 01 00 01 	mvi r1,1
 2001294:	59 61 00 04 	sw (r11+4),r1
 2001298:	e3 ff ff da 	bi 2001200 <EE_uart_common_handler+0xbc>
            //lsr = uartc->lsr;
            //if((lsr & (MICOUART_LSR_PE_MASK | MICOUART_LSR_FE_MASK)) == 0) if(uiValue & MICOUART_LSR_RX_RDY_MASK)
            data = uartc->rxtx;
            ret = EE_buffer_putmsg(&(usp->rxbuf), &data);
            if(ret==EE_BUF_ERR_FULL) 
				usp->err = EE_UART_ERR_RX_BUF_FULL;  
 200129c:	34 01 ff fb 	mvi r1,-5
 20012a0:	59 c1 00 00 	sw (r14+0),r1
 20012a4:	e3 ff ff f0 	bi 2001264 <EE_uart_common_handler+0x120>

020012a8 <EE_hal_i2c_write_byte_polling>:

    return EE_I2C_OK;
}
				
int EE_hal_i2c_write_byte_polling(OCI2CMDev_t* i2cc, EE_UINT8 device, EE_UINT8 address, EE_UINT8 data)
{
 20012a8:	b8 20 28 00 	mv r5,r1
 20012ac:	20 42 00 ff 	andi r2,r2,0xff
 20012b0:	20 63 00 ff 	andi r3,r3,0xff
 20012b4:	20 84 00 ff 	andi r4,r4,0xff
		Return values:
			- the return values can be:	1 if i2c bus is idle else 0	
*/	
__INLINE__ int __ALWAYS_INLINE__ EE_hal_i2c_idle(OCI2CMDev_t* i2cc)
{
	return EE_i2c_bus_idle(i2cc->StatusCommand);
 20012b8:	28 a1 00 10 	lw r1,(r5+16)
	int ret;

	while( !EE_hal_i2c_idle(i2cc) )
 20012bc:	20 21 00 40 	andi r1,r1,0x40
 20012c0:	5c 20 ff fe 	bne r1,r0,20012b8 <EE_hal_i2c_write_byte_polling+0x10>
		;
	/* load address, set-up a write to write the device address out to the bus */
	i2cc->Data = (device & ~EE_I2C_RW_MASK);
 20012c4:	20 41 00 fe 	andi r1,r2,0xfe
 20012c8:	58 a1 00 0c 	sw (r5+12),r1
	/* initiate a start (repeated) and write out the address */
	i2cc->StatusCommand = (OCI2CM_CMD_START | OCI2CM_CMD_WRITE);
 20012cc:	34 02 00 90 	mvi r2,144
 20012d0:	58 a2 00 10 	sw (r5+16),r2
	/* wait for transfer to complete */
	EE_i2c_pend_for_TIP_done(i2cc->StatusCommand);
 20012d4:	28 a1 00 10 	lw r1,(r5+16)
 20012d8:	20 22 00 02 	andi r2,r1,0x2
 20012dc:	5c 40 ff fe 	bne r2,r0,20012d4 <EE_hal_i2c_write_byte_polling+0x2c>
	/* check if ack is received */
	if( i2cc->StatusCommand & OCI2CM_STATUS_RX_ACK )
 20012e0:	28 a1 00 10 	lw r1,(r5+16)
 20012e4:	34 06 ff ee 	mvi r6,-18
 20012e8:	20 21 00 80 	andi r1,r1,0x80
 20012ec:	5c 22 00 1a 	bne r1,r2,2001354 <EE_hal_i2c_write_byte_polling+0xac>
		ret = EE_I2C_ERR_DEV_ACK;
	else
	{
		/* load address, set-up a write to write the address out to the bus */
		i2cc->Data = (unsigned int)address;
 20012f0:	58 a3 00 0c 	sw (r5+12),r3
		/* write the data out to the bus */
		i2cc->StatusCommand = OCI2CM_CMD_WRITE;
 20012f4:	34 01 00 10 	mvi r1,16
 20012f8:	58 a1 00 10 	sw (r5+16),r1
		/* wait for transfer to complete */
		EE_i2c_pend_for_TIP_done(i2cc->StatusCommand);
 20012fc:	28 a1 00 10 	lw r1,(r5+16)
 2001300:	20 22 00 02 	andi r2,r1,0x2
 2001304:	5c 40 ff fe 	bne r2,r0,20012fc <EE_hal_i2c_write_byte_polling+0x54>
		/* check if ack is received */
		if( i2cc->StatusCommand & OCI2CM_STATUS_RX_ACK )
 2001308:	28 a1 00 10 	lw r1,(r5+16)
 200130c:	34 06 ff f1 	mvi r6,-15
 2001310:	20 21 00 80 	andi r1,r1,0x80
 2001314:	5c 22 00 10 	bne r1,r2,2001354 <EE_hal_i2c_write_byte_polling+0xac>
			ret = EE_I2C_ERR_ADD_ACK;
		else
		{
	  		/* load data in register */
	    	i2cc->Data = (unsigned int)data;
 2001318:	58 a4 00 0c 	sw (r5+12),r4
	    	/* write the data out to the bus */
	    	i2cc->StatusCommand = OCI2CM_CMD_WRITE;
 200131c:	34 01 00 10 	mvi r1,16
 2001320:	58 a1 00 10 	sw (r5+16),r1
	    	/* wait for current transfer to complete */
	    	EE_i2c_pend_for_TIP_done(i2cc->StatusCommand);
 2001324:	28 a1 00 10 	lw r1,(r5+16)
 2001328:	20 22 00 02 	andi r2,r1,0x2
 200132c:	5c 40 ff fe 	bne r2,r0,2001324 <EE_hal_i2c_write_byte_polling+0x7c>
	    	/* check for ack  and if arb was lost during this transaction */
	    	if( i2cc->StatusCommand & OCI2CM_STATUS_RX_ACK )
 2001330:	28 a1 00 10 	lw r1,(r5+16)
 2001334:	34 06 ff f0 	mvi r6,-16
 2001338:	20 23 00 80 	andi r3,r1,0x80
 200133c:	5c 62 00 06 	bne r3,r2,2001354 <EE_hal_i2c_write_byte_polling+0xac>
	        	ret = EE_I2C_ERR_DATA_ACK;
	    	else if( i2cc->StatusCommand & OCI2CM_STATUS_ARB_LOST )
 2001340:	28 a1 00 10 	lw r1,(r5+16)
 2001344:	34 06 ff ef 	mvi r6,-17
 2001348:	20 21 00 20 	andi r1,r1,0x20
 200134c:	5c 23 00 02 	bne r1,r3,2001354 <EE_hal_i2c_write_byte_polling+0xac>
 2001350:	b8 20 30 00 	mv r6,r1
			else
				ret = EE_I2C_OK;
		}
	}
	/* stop signal */
	EE_i2c_pend_for_TIP_done(i2cc->StatusCommand);
 2001354:	28 a1 00 10 	lw r1,(r5+16)
 2001358:	20 21 00 02 	andi r1,r1,0x2
 200135c:	5c 20 ff fe 	bne r1,r0,2001354 <EE_hal_i2c_write_byte_polling+0xac>
    i2cc->StatusCommand = OCI2CM_CMD_STOP;
 2001360:	34 01 00 40 	mvi r1,64
 2001364:	58 a1 00 10 	sw (r5+16),r1
	
	return ret;	
}
 2001368:	b8 c0 08 00 	mv r1,r6
 200136c:	c3 a0 00 00 	ret

02001370 <EE_hal_i2c_read_byte_polling>:

int EE_hal_i2c_read_byte_polling(OCI2CMDev_t* i2cc, EE_UINT8 device, EE_UINT8 address)
{
 2001370:	b8 20 20 00 	mv r4,r1
 2001374:	20 45 00 ff 	andi r5,r2,0xff
 2001378:	20 63 00 ff 	andi r3,r3,0xff
 200137c:	28 81 00 10 	lw r1,(r4+16)
	int ret;

	while( !EE_hal_i2c_idle(i2cc) )
 2001380:	20 21 00 40 	andi r1,r1,0x40
 2001384:	5c 20 ff fe 	bne r1,r0,200137c <EE_hal_i2c_read_byte_polling+0xc>
		;
	/* load device address, set-up a write to write the device address out to the bus */
	i2cc->Data = (device & ~EE_I2C_RW_MASK);					// AFTER WRITE
 2001388:	20 a1 00 fe 	andi r1,r5,0xfe
 200138c:	58 81 00 0c 	sw (r4+12),r1
	/* initiate a start (repeated) and write out the address */
	i2cc->StatusCommand = (OCI2CM_CMD_START | OCI2CM_CMD_WRITE);
 2001390:	34 02 00 90 	mvi r2,144
 2001394:	58 82 00 10 	sw (r4+16),r2
	/* wait for transfer to complete */
	EE_i2c_pend_for_TIP_done(i2cc->StatusCommand);
 2001398:	28 81 00 10 	lw r1,(r4+16)
 200139c:	20 22 00 02 	andi r2,r1,0x2
 20013a0:	5c 40 ff fe 	bne r2,r0,2001398 <EE_hal_i2c_read_byte_polling+0x28>
	/* check if ack is received */
	if( i2cc->StatusCommand & OCI2CM_STATUS_RX_ACK )
 20013a4:	28 81 00 10 	lw r1,(r4+16)
 20013a8:	20 21 00 80 	andi r1,r1,0x80
 20013ac:	5c 22 00 26 	bne r1,r2,2001444 <EE_hal_i2c_read_byte_polling+0xd4>
		ret = EE_I2C_ERR_DEV_ACK;
	else
	{
		/* load address, set-up a write to write the address out to the bus */
		i2cc->Data = (unsigned int)address;
 20013b0:	58 83 00 0c 	sw (r4+12),r3
		/* write the data out to the bus */
		i2cc->StatusCommand = OCI2CM_CMD_WRITE;
 20013b4:	34 01 00 10 	mvi r1,16
 20013b8:	58 81 00 10 	sw (r4+16),r1
		/* wait for transfer to complete */
		EE_i2c_pend_for_TIP_done(i2cc->StatusCommand);
 20013bc:	28 81 00 10 	lw r1,(r4+16)
 20013c0:	20 23 00 02 	andi r3,r1,0x2
 20013c4:	5c 60 ff fe 	bne r3,r0,20013bc <EE_hal_i2c_read_byte_polling+0x4c>
		/* check if ack is received */
		if( i2cc->StatusCommand & OCI2CM_STATUS_RX_ACK )
 20013c8:	28 81 00 10 	lw r1,(r4+16)
 20013cc:	34 02 ff f1 	mvi r2,-15
 20013d0:	20 21 00 80 	andi r1,r1,0x80
 20013d4:	5c 23 00 15 	bne r1,r3,2001428 <EE_hal_i2c_read_byte_polling+0xb8>
			ret = EE_I2C_ERR_ADD_ACK;
		else
		{
			/* load device address, set-up a write to write the device address out to the bus */
			i2cc->Data = (device | EE_I2C_RW_MASK );			// AFTER READ
 20013d8:	38 a1 00 01 	ori r1,r5,0x1
 20013dc:	58 81 00 0c 	sw (r4+12),r1
			/* initiate a start (repeated) and write out the address */
			i2cc->StatusCommand = (OCI2CM_CMD_START | OCI2CM_CMD_WRITE);
 20013e0:	34 02 00 90 	mvi r2,144
 20013e4:	58 82 00 10 	sw (r4+16),r2
			/* wait for transfer to complete */
			EE_i2c_pend_for_TIP_done(i2cc->StatusCommand);
 20013e8:	28 81 00 10 	lw r1,(r4+16)
 20013ec:	20 22 00 02 	andi r2,r1,0x2
 20013f0:	5c 40 ff fe 	bne r2,r0,20013e8 <EE_hal_i2c_read_byte_polling+0x78>
			/* check if ack is received */
			if( i2cc->StatusCommand & OCI2CM_STATUS_RX_ACK )
 20013f4:	28 81 00 10 	lw r1,(r4+16)
 20013f8:	20 21 00 80 	andi r1,r1,0x80
 20013fc:	5c 22 00 12 	bne r1,r2,2001444 <EE_hal_i2c_read_byte_polling+0xd4>
				ret = EE_I2C_ERR_DEV_ACK;
			else
			{
				/* issue a read with a NACK */
	   			i2cc->StatusCommand = (OCI2CM_CMD_READ | OCI2CM_CMD_NACK);
 2001400:	34 01 00 28 	mvi r1,40
 2001404:	58 81 00 10 	sw (r4+16),r1
	   			/* wait till transfer is in progress */
	   			EE_i2c_pend_for_TIP_done(i2cc->StatusCommand);
 2001408:	28 81 00 10 	lw r1,(r4+16)
 200140c:	20 23 00 02 	andi r3,r1,0x2
 2001410:	5c 60 ff fe 	bne r3,r0,2001408 <EE_hal_i2c_read_byte_polling+0x98>
	   			/* read data */
	   			ret = i2cc->Data;
 2001414:	28 82 00 0c 	lw r2,(r4+12)
	   			/* check for ack  and if arb was lost during this transaction */
	   			if( i2cc->StatusCommand & OCI2CM_STATUS_ARB_LOST )
 2001418:	28 81 00 10 	lw r1,(r4+16)
 200141c:	20 21 00 20 	andi r1,r1,0x20
 2001420:	44 23 00 02 	be r1,r3,2001428 <EE_hal_i2c_read_byte_polling+0xb8>
 2001424:	34 02 ff ef 	mvi r2,-17
		       	 	ret = EE_I2C_ERR_ARB_LOST;
			}
		}
	}
	/* stop signal */
	EE_i2c_pend_for_TIP_done(i2cc->StatusCommand);
 2001428:	28 81 00 10 	lw r1,(r4+16)
 200142c:	20 21 00 02 	andi r1,r1,0x2
 2001430:	5c 20 ff fe 	bne r1,r0,2001428 <EE_hal_i2c_read_byte_polling+0xb8>
    i2cc->StatusCommand = OCI2CM_CMD_STOP;
 2001434:	34 01 00 40 	mvi r1,64
 2001438:	58 81 00 10 	sw (r4+16),r1
		
	return ret;
}
 200143c:	b8 40 08 00 	mv r1,r2
 2001440:	c3 a0 00 00 	ret
		       	 	ret = EE_I2C_ERR_ARB_LOST;
			}
		}
	}
	/* stop signal */
	EE_i2c_pend_for_TIP_done(i2cc->StatusCommand);
 2001444:	28 81 00 10 	lw r1,(r4+16)
				/* issue a read with a NACK */
	   			i2cc->StatusCommand = (OCI2CM_CMD_READ | OCI2CM_CMD_NACK);
	   			/* wait till transfer is in progress */
	   			EE_i2c_pend_for_TIP_done(i2cc->StatusCommand);
	   			/* read data */
	   			ret = i2cc->Data;
 2001448:	34 02 ff ee 	mvi r2,-18
		       	 	ret = EE_I2C_ERR_ARB_LOST;
			}
		}
	}
	/* stop signal */
	EE_i2c_pend_for_TIP_done(i2cc->StatusCommand);
 200144c:	20 21 00 02 	andi r1,r1,0x2
 2001450:	5c 20 ff f6 	bne r1,r0,2001428 <EE_hal_i2c_read_byte_polling+0xb8>
 2001454:	e3 ff ff f8 	bi 2001434 <EE_hal_i2c_read_byte_polling+0xc4>

02001458 <EE_hal_i2c_write_buffer_polling>:
		
	return ret;
}

int EE_hal_i2c_write_buffer_polling(OCI2CMDev_t* i2cc, EE_UINT8 device, EE_UINT8 address, EE_UINT8 *data, int len)
{
 2001458:	b8 20 30 00 	mv r6,r1
 200145c:	20 42 00 ff 	andi r2,r2,0xff
 2001460:	20 63 00 ff 	andi r3,r3,0xff
 2001464:	28 c1 00 10 	lw r1,(r6+16)
	int i;
	int ret;
	
	while( !EE_hal_i2c_idle(i2cc) )
 2001468:	20 21 00 40 	andi r1,r1,0x40
 200146c:	5c 20 ff fe 	bne r1,r0,2001464 <EE_hal_i2c_write_buffer_polling+0xc>
		;
	/* load device address, set-up a write to write the device address out to the bus */
    i2cc->Data = (device & ~EE_I2C_RW_MASK);			// AFTER WRITE
 2001470:	20 41 00 fe 	andi r1,r2,0xfe
 2001474:	58 c1 00 0c 	sw (r6+12),r1
    /* initiate a start (repeated) and write out the address */
    i2cc->StatusCommand = (OCI2CM_CMD_START | OCI2CM_CMD_WRITE);
 2001478:	34 02 00 90 	mvi r2,144
 200147c:	58 c2 00 10 	sw (r6+16),r2
    /* wait for transfer to complete */
    EE_i2c_pend_for_TIP_done(i2cc->StatusCommand);
 2001480:	28 c1 00 10 	lw r1,(r6+16)
 2001484:	20 22 00 02 	andi r2,r1,0x2
 2001488:	5c 40 ff fe 	bne r2,r0,2001480 <EE_hal_i2c_write_buffer_polling+0x28>
    /* check if ack is received */
    if( i2cc->StatusCommand & OCI2CM_STATUS_RX_ACK )
 200148c:	28 c1 00 10 	lw r1,(r6+16)
 2001490:	34 07 ff ee 	mvi r7,-18
 2001494:	20 21 00 80 	andi r1,r1,0x80
 2001498:	5c 22 00 1c 	bne r1,r2,2001508 <EE_hal_i2c_write_buffer_polling+0xb0>
       	ret = EE_I2C_ERR_DEV_ACK;
    else
    {
		/* load device address, set-up a write to write the device address out to the bus */
    	i2cc->Data = (unsigned int)address;
 200149c:	58 c3 00 0c 	sw (r6+12),r3
    	/* initiate a start (repeated) and write out the address */
    	i2cc->StatusCommand = OCI2CM_CMD_WRITE;
 20014a0:	34 01 00 10 	mvi r1,16
 20014a4:	58 c1 00 10 	sw (r6+16),r1
    	/* wait for transfer to complete */
    	EE_i2c_pend_for_TIP_done(i2cc->StatusCommand);
 20014a8:	28 c1 00 10 	lw r1,(r6+16)
 20014ac:	20 22 00 02 	andi r2,r1,0x2
 20014b0:	5c 40 ff fe 	bne r2,r0,20014a8 <EE_hal_i2c_write_buffer_polling+0x50>
    	/* check if ack is received */
    	if( i2cc->StatusCommand & OCI2CM_STATUS_RX_ACK )
 20014b4:	28 c1 00 10 	lw r1,(r6+16)
 20014b8:	34 07 ff f1 	mvi r7,-15
 20014bc:	20 21 00 80 	andi r1,r1,0x80
 20014c0:	5c 22 00 12 	bne r1,r2,2001508 <EE_hal_i2c_write_buffer_polling+0xb0>
       		ret = EE_I2C_ERR_ADD_ACK;
       	else
       	{
    		/* transfer the bytes */
    		for ( i = 0; i < len; i++)
 20014c4:	4c 25 00 0d 	bge r1,r5,20014f8 <EE_hal_i2c_write_buffer_polling+0xa0>
 20014c8:	b8 20 18 00 	mv r3,r1
    		{
        		/* load data in register */
        		i2cc->Data = (unsigned int)(data[i]);
        		/* write the data out to the bus  */
        		i2cc->StatusCommand = OCI2CM_CMD_WRITE;
 20014cc:	34 07 00 10 	mvi r7,16
       	{
    		/* transfer the bytes */
    		for ( i = 0; i < len; i++)
    		{
        		/* load data in register */
        		i2cc->Data = (unsigned int)(data[i]);
 20014d0:	b4 83 08 00 	add r1,r4,r3
 20014d4:	40 22 00 00 	lbu r2,(r1+0)
 20014d8:	58 c2 00 0c 	sw (r6+12),r2
        		/* write the data out to the bus  */
        		i2cc->StatusCommand = OCI2CM_CMD_WRITE;
 20014dc:	58 c7 00 10 	sw (r6+16),r7
        		/* wait for current transfer to complete */
        		EE_i2c_pend_for_TIP_done(i2cc->StatusCommand);
 20014e0:	28 c1 00 10 	lw r1,(r6+16)
 20014e4:	20 21 00 02 	andi r1,r1,0x2
 20014e8:	5c 20 ff fe 	bne r1,r0,20014e0 <EE_hal_i2c_write_buffer_polling+0x88>
        		/* check for ack */
        		if( i2cc->StatusCommand & OCI2CM_STATUS_RX_ACK )
 20014ec:	28 c1 00 10 	lw r1,(r6+16)
    	if( i2cc->StatusCommand & OCI2CM_STATUS_RX_ACK )
       		ret = EE_I2C_ERR_ADD_ACK;
       	else
       	{
    		/* transfer the bytes */
    		for ( i = 0; i < len; i++)
 20014f0:	34 63 00 01 	addi r3,r3,1
 20014f4:	48 a3 ff f7 	bg r5,r3,20014d0 <EE_hal_i2c_write_buffer_polling+0x78>
        		/* check for ack */
        		if( i2cc->StatusCommand & OCI2CM_STATUS_RX_ACK )
           			ret = EE_I2C_ERR_DATA_ACK;
    		}
    		/* see if arbitration was lost during this transaction */
    		if( i2cc->StatusCommand & OCI2CM_STATUS_ARB_LOST )
 20014f8:	28 c1 00 10 	lw r1,(r6+16)
 20014fc:	34 07 ff ef 	mvi r7,-17
 2001500:	20 21 00 20 	andi r1,r1,0x20
 2001504:	44 20 00 08 	be r1,r0,2001524 <EE_hal_i2c_write_buffer_polling+0xcc>
    		else	
        		ret = EE_I2C_OK;
		}
	}
	/* stop signal */
	EE_i2c_pend_for_TIP_done(i2cc->StatusCommand);
 2001508:	28 c1 00 10 	lw r1,(r6+16)
 200150c:	20 21 00 02 	andi r1,r1,0x2
 2001510:	5c 20 ff fe 	bne r1,r0,2001508 <EE_hal_i2c_write_buffer_polling+0xb0>
    i2cc->StatusCommand = OCI2CM_CMD_STOP;
 2001514:	34 01 00 40 	mvi r1,64
 2001518:	58 c1 00 10 	sw (r6+16),r1
    
	// All done!!!
	return ret;
}	
 200151c:	b8 e0 08 00 	mv r1,r7
 2001520:	c3 a0 00 00 	ret
        		/* check for ack */
        		if( i2cc->StatusCommand & OCI2CM_STATUS_RX_ACK )
           			ret = EE_I2C_ERR_DATA_ACK;
    		}
    		/* see if arbitration was lost during this transaction */
    		if( i2cc->StatusCommand & OCI2CM_STATUS_ARB_LOST )
 2001524:	b8 20 38 00 	mv r7,r1
    		else	
        		ret = EE_I2C_OK;
		}
	}
	/* stop signal */
	EE_i2c_pend_for_TIP_done(i2cc->StatusCommand);
 2001528:	28 c1 00 10 	lw r1,(r6+16)
 200152c:	20 21 00 02 	andi r1,r1,0x2
 2001530:	5c 20 ff f6 	bne r1,r0,2001508 <EE_hal_i2c_write_buffer_polling+0xb0>
 2001534:	e3 ff ff f8 	bi 2001514 <EE_hal_i2c_write_buffer_polling+0xbc>

02001538 <EE_hal_i2c_read_buffer_polling>:
	// All done!!!
	return ret;
}	

int EE_hal_i2c_read_buffer_polling(OCI2CMDev_t* i2cc, EE_UINT8 device, EE_UINT8 address, EE_UINT8 *data, int len)
{
 2001538:	b8 20 30 00 	mv r6,r1
 200153c:	20 47 00 ff 	andi r7,r2,0xff
 2001540:	20 63 00 ff 	andi r3,r3,0xff
 2001544:	28 c1 00 10 	lw r1,(r6+16)
	int i;
	int ret;

	while( !EE_hal_i2c_idle(i2cc) )
 2001548:	20 21 00 40 	andi r1,r1,0x40
 200154c:	5c 20 ff fe 	bne r1,r0,2001544 <EE_hal_i2c_read_buffer_polling+0xc>
		;
	/* load device address, set-up a write to write the device address out to the bus */
	i2cc->Data = (device & ~EE_I2C_RW_MASK);			// AFTER WRITE 
 2001550:	20 e1 00 fe 	andi r1,r7,0xfe
 2001554:	58 c1 00 0c 	sw (r6+12),r1
	/* initiate a start (repeated) and write out the address */
	i2cc->StatusCommand = (OCI2CM_CMD_START | OCI2CM_CMD_WRITE);
 2001558:	34 02 00 90 	mvi r2,144
 200155c:	58 c2 00 10 	sw (r6+16),r2
	/* wait for transfer to complete */
	EE_i2c_pend_for_TIP_done(i2cc->StatusCommand);
 2001560:	28 c1 00 10 	lw r1,(r6+16)
 2001564:	20 22 00 02 	andi r2,r1,0x2
 2001568:	5c 40 ff fe 	bne r2,r0,2001560 <EE_hal_i2c_read_buffer_polling+0x28>
	/* check if ack is received */
	if( i2cc->StatusCommand & OCI2CM_STATUS_RX_ACK )
 200156c:	28 c1 00 10 	lw r1,(r6+16)
 2001570:	20 21 00 80 	andi r1,r1,0x80
 2001574:	5c 22 00 30 	bne r1,r2,2001634 <EE_hal_i2c_read_buffer_polling+0xfc>
		ret = EE_I2C_ERR_DEV_ACK;
	else
	{
		/* load device address, set-up a write to write the device address out to the bus */
    	i2cc->Data = (unsigned int)address;
 2001578:	58 c3 00 0c 	sw (r6+12),r3
    	/* initiate a start (repeated) and write out the address */
    	i2cc->StatusCommand = OCI2CM_CMD_WRITE;
 200157c:	34 01 00 10 	mvi r1,16
 2001580:	58 c1 00 10 	sw (r6+16),r1
    	/* wait for transfer to complete */
    	EE_i2c_pend_for_TIP_done(i2cc->StatusCommand);
 2001584:	28 c1 00 10 	lw r1,(r6+16)
 2001588:	20 22 00 02 	andi r2,r1,0x2
 200158c:	5c 40 ff fe 	bne r2,r0,2001584 <EE_hal_i2c_read_buffer_polling+0x4c>
    	/* check if ack is received */
    	if( i2cc->StatusCommand & OCI2CM_STATUS_RX_ACK )
 2001590:	28 c1 00 10 	lw r1,(r6+16)
 2001594:	34 03 ff f1 	mvi r3,-15
 2001598:	20 21 00 80 	andi r1,r1,0x80
 200159c:	5c 22 00 1f 	bne r1,r2,2001618 <EE_hal_i2c_read_buffer_polling+0xe0>
       		ret = EE_I2C_ERR_ADD_ACK;
       	else
       	{
			/* load device address, set-up a write to write the device address out to the bus */
			i2cc->Data = (device | EE_I2C_RW_MASK);		// AFTER READ
 20015a0:	38 e1 00 01 	ori r1,r7,0x1
 20015a4:	58 c1 00 0c 	sw (r6+12),r1
			/* initiate a start (repeated) and write out the address */
			i2cc->StatusCommand = (OCI2CM_CMD_START | OCI2CM_CMD_WRITE);
 20015a8:	34 02 00 90 	mvi r2,144
 20015ac:	58 c2 00 10 	sw (r6+16),r2
			/* wait for transfer to complete */
			EE_i2c_pend_for_TIP_done(i2cc->StatusCommand);
 20015b0:	28 c1 00 10 	lw r1,(r6+16)
 20015b4:	20 22 00 02 	andi r2,r1,0x2
 20015b8:	5c 40 ff fe 	bne r2,r0,20015b0 <EE_hal_i2c_read_buffer_polling+0x78>
			/* check if ack is received */
			if( i2cc->StatusCommand & OCI2CM_STATUS_RX_ACK )
 20015bc:	28 c1 00 10 	lw r1,(r6+16)
 20015c0:	20 21 00 80 	andi r1,r1,0x80
 20015c4:	5c 22 00 1c 	bne r1,r2,2001634 <EE_hal_i2c_read_buffer_polling+0xfc>
				ret = EE_I2C_ERR_DEV_ACK;
			else
			{
				/* begin reading data */
		   		for (i = 0; i < len; i++)
 20015c8:	4c 25 00 0f 	bge r1,r5,2001604 <EE_hal_i2c_read_buffer_polling+0xcc>
 20015cc:	b8 20 18 00 	mv r3,r1
 20015d0:	34 a7 ff ff 	addi r7,r5,-1
		   		{
		       		/* read data; send ACK on all reads except the last one */
		       		if( i == (len - 1) )
		           		i2cc->StatusCommand = (OCI2CM_CMD_READ|OCI2CM_CMD_NACK);
		       		else
		           		i2cc->StatusCommand = (OCI2CM_CMD_READ|OCI2CM_CMD_ACK);	
 20015d4:	34 08 00 20 	mvi r8,32
				/* begin reading data */
		   		for (i = 0; i < len; i++)
		   		{
		       		/* read data; send ACK on all reads except the last one */
		       		if( i == (len - 1) )
		           		i2cc->StatusCommand = (OCI2CM_CMD_READ|OCI2CM_CMD_NACK);
 20015d8:	34 09 00 28 	mvi r9,40
			{
				/* begin reading data */
		   		for (i = 0; i < len; i++)
		   		{
		       		/* read data; send ACK on all reads except the last one */
		       		if( i == (len - 1) )
 20015dc:	44 e3 00 1b 	be r7,r3,2001648 <EE_hal_i2c_read_buffer_polling+0x110>
		           		i2cc->StatusCommand = (OCI2CM_CMD_READ|OCI2CM_CMD_NACK);
		       		else
		           		i2cc->StatusCommand = (OCI2CM_CMD_READ|OCI2CM_CMD_ACK);	
 20015e0:	58 c8 00 10 	sw (r6+16),r8
		       		/* wait while transfer is in progress */
		       		EE_i2c_pend_for_TIP_done(i2cc->StatusCommand);
 20015e4:	28 c1 00 10 	lw r1,(r6+16)
 20015e8:	20 21 00 02 	andi r1,r1,0x2
 20015ec:	5c 20 ff fe 	bne r1,r0,20015e4 <EE_hal_i2c_read_buffer_polling+0xac>
		       		/* read data */
		       		data[i] = (EE_UINT8)(i2cc->Data);
 20015f0:	28 c2 00 0c 	lw r2,(r6+12)
 20015f4:	b4 83 08 00 	add r1,r4,r3
			if( i2cc->StatusCommand & OCI2CM_STATUS_RX_ACK )
				ret = EE_I2C_ERR_DEV_ACK;
			else
			{
				/* begin reading data */
		   		for (i = 0; i < len; i++)
 20015f8:	34 63 00 01 	addi r3,r3,1
		       		else
		           		i2cc->StatusCommand = (OCI2CM_CMD_READ|OCI2CM_CMD_ACK);	
		       		/* wait while transfer is in progress */
		       		EE_i2c_pend_for_TIP_done(i2cc->StatusCommand);
		       		/* read data */
		       		data[i] = (EE_UINT8)(i2cc->Data);
 20015fc:	30 22 00 00 	sb (r1+0),r2
			if( i2cc->StatusCommand & OCI2CM_STATUS_RX_ACK )
				ret = EE_I2C_ERR_DEV_ACK;
			else
			{
				/* begin reading data */
		   		for (i = 0; i < len; i++)
 2001600:	48 a3 ff f7 	bg r5,r3,20015dc <EE_hal_i2c_read_buffer_polling+0xa4>
		       		EE_i2c_pend_for_TIP_done(i2cc->StatusCommand);
		       		/* read data */
		       		data[i] = (EE_UINT8)(i2cc->Data);
				}
				/* check for ack  and if arb was lost during this transaction */
				if( i2cc->StatusCommand & OCI2CM_STATUS_ARB_LOST )
 2001604:	28 c1 00 10 	lw r1,(r6+16)
 2001608:	34 03 ff ef 	mvi r3,-17
 200160c:	20 21 00 20 	andi r1,r1,0x20
 2001610:	5c 20 00 02 	bne r1,r0,2001618 <EE_hal_i2c_read_buffer_polling+0xe0>
 2001614:	b8 20 18 00 	mv r3,r1
	        		ret = EE_I2C_OK;	// return the number of bytes received... 
			}
		}
	}
	/* stop signal */
	EE_i2c_pend_for_TIP_done(i2cc->StatusCommand);
 2001618:	28 c1 00 10 	lw r1,(r6+16)
 200161c:	20 21 00 02 	andi r1,r1,0x2
 2001620:	5c 20 ff fe 	bne r1,r0,2001618 <EE_hal_i2c_read_buffer_polling+0xe0>
    i2cc->StatusCommand = OCI2CM_CMD_STOP;
 2001624:	34 01 00 40 	mvi r1,64
 2001628:	58 c1 00 10 	sw (r6+16),r1
		
	// All done!!!
	return ret;
}
 200162c:	b8 60 08 00 	mv r1,r3
 2001630:	c3 a0 00 00 	ret
	        		ret = EE_I2C_OK;	// return the number of bytes received... 
			}
		}
	}
	/* stop signal */
	EE_i2c_pend_for_TIP_done(i2cc->StatusCommand);
 2001634:	28 c1 00 10 	lw r1,(r6+16)
		       		EE_i2c_pend_for_TIP_done(i2cc->StatusCommand);
		       		/* read data */
		       		data[i] = (EE_UINT8)(i2cc->Data);
				}
				/* check for ack  and if arb was lost during this transaction */
				if( i2cc->StatusCommand & OCI2CM_STATUS_ARB_LOST )
 2001638:	34 03 ff ee 	mvi r3,-18
	        		ret = EE_I2C_OK;	// return the number of bytes received... 
			}
		}
	}
	/* stop signal */
	EE_i2c_pend_for_TIP_done(i2cc->StatusCommand);
 200163c:	20 21 00 02 	andi r1,r1,0x2
 2001640:	5c 20 ff f6 	bne r1,r0,2001618 <EE_hal_i2c_read_buffer_polling+0xe0>
 2001644:	e3 ff ff f8 	bi 2001624 <EE_hal_i2c_read_buffer_polling+0xec>
				/* begin reading data */
		   		for (i = 0; i < len; i++)
		   		{
		       		/* read data; send ACK on all reads except the last one */
		       		if( i == (len - 1) )
		           		i2cc->StatusCommand = (OCI2CM_CMD_READ|OCI2CM_CMD_NACK);
 2001648:	58 c9 00 10 	sw (r6+16),r9
 200164c:	e3 ff ff e6 	bi 20015e4 <EE_hal_i2c_read_buffer_polling+0xac>

02001650 <EE_hal_i2c_config>:
}
															
#ifndef __USE_I2C_IRQ__

int EE_hal_i2c_config(OCI2CMDev_t* i2cc, int baudrate, int settings)
{
 2001650:	37 9c ff f4 	addi sp,sp,-12
 2001654:	5b 8b 00 0c 	sw (sp+12),r11
 2001658:	5b 8c 00 08 	sw (sp+8),r12
 200165c:	5b 9d 00 04 	sw (sp+4),ra
 2001660:	b8 20 58 00 	mv r11,r1
 2001664:	b8 40 28 00 	mv r5,r2
}

/* This function is used to send a stop condition on the bus */
int EE_hal_i2c_stop(OCI2CMDev_t* i2cc)		//note: stop condition manual or not???
{
	EE_i2c_pend_for_TIP_done(i2cc->StatusCommand);
 2001668:	29 61 00 10 	lw r1,(r11+16)
 200166c:	20 2c 00 02 	andi r12,r1,0x2
 2001670:	5d 80 ff fe 	bne r12,r0,2001668 <EE_hal_i2c_config+0x18>

    i2cc->StatusCommand = OCI2CM_CMD_STOP;
 2001674:	34 01 00 40 	mvi r1,64
 2001678:	59 61 00 10 	sw (r11+16),r1
	   command, or when the command register has the STO bit set. When halted during a
	   transfer, the core can hang the I2C bus.  
	*/	
	EE_hal_i2c_stop(i2cc);
	
	i2cc->Control &= ~OCI2CM_CTL_CORE_ENABLE; 
 200167c:	29 63 00 08 	lw r3,(r11+8)
 2001680:	34 01 ff 7f 	mvi r1,-129
{
	int prescale;
	
	EE_hal_i2c_disable(i2cc);		 
	EE_hal_i2c_disable_IRQ(i2cc);                       
	prescale = ((MICO32_CPU_CLOCK_MHZ/(5*baudrate)-1));
 2001684:	3c a2 00 02 	sli r2,r5,2
	   command, or when the command register has the STO bit set. When halted during a
	   transfer, the core can hang the I2C bus.  
	*/	
	EE_hal_i2c_stop(i2cc);
	
	i2cc->Control &= ~OCI2CM_CTL_CORE_ENABLE; 
 2001688:	a0 61 18 00 	and r3,r3,r1
 200168c:	59 63 00 08 	sw (r11+8),r3
		Return values:
			- the return values can be:	EE_I2C_OK 	
*/													
__INLINE__ int __ALWAYS_INLINE__ EE_hal_i2c_disable_IRQ(OCI2CMDev_t* i2cc)
{
	i2cc->Control &= ~OCI2CM_CTL_INT_ENABLE;
 2001690:	29 64 00 08 	lw r4,(r11+8)
 2001694:	34 03 ff bf 	mvi r3,-65
{
	int prescale;
	
	EE_hal_i2c_disable(i2cc);		 
	EE_hal_i2c_disable_IRQ(i2cc);                       
	prescale = ((MICO32_CPU_CLOCK_MHZ/(5*baudrate)-1));
 2001698:	78 01 02 06 	mvhi r1,0x206
 200169c:	a0 83 20 00 	and r4,r4,r3
 20016a0:	b4 45 10 00 	add r2,r2,r5
 20016a4:	59 64 00 08 	sw (r11+8),r4
 20016a8:	38 21 cc 80 	ori r1,r1,0xcc80
 20016ac:	f8 00 20 02 	calli 20096b4 <__divsi3>
 20016b0:	34 21 ff ff 	addi r1,r1,-1
	i2cc->PrescaleLo = prescale & 0xff;                               
    i2cc->PrescaleHi = prescale >> 8;                                          
 20016b4:	14 22 00 08 	sri r2,r1,8
	int prescale;
	
	EE_hal_i2c_disable(i2cc);		 
	EE_hal_i2c_disable_IRQ(i2cc);                       
	prescale = ((MICO32_CPU_CLOCK_MHZ/(5*baudrate)-1));
	i2cc->PrescaleLo = prescale & 0xff;                               
 20016b8:	20 21 00 ff 	andi r1,r1,0xff
 20016bc:	59 61 00 00 	sw (r11+0),r1
    i2cc->PrescaleHi = prescale >> 8;                                          
 20016c0:	59 62 00 04 	sw (r11+4),r2
    i2cc->Data = 0;                                               
 20016c4:	59 6c 00 0c 	sw (r11+12),r12
    i2cc->StatusCommand = 0;   
 20016c8:	59 6c 00 10 	sw (r11+16),r12
		Return values:
			- the return values can be:	EE_I2C_OK 	
*/														
__INLINE__ int __ALWAYS_INLINE__ EE_hal_i2c_enable(OCI2CMDev_t* i2cc)
{
	i2cc->Control |= OCI2CM_CTL_CORE_ENABLE;  
 20016cc:	29 62 00 08 	lw r2,(r11+8)
	EE_hal_i2c_enable(i2cc);	
	
	// All done!!!
	return EE_I2C_OK;

}
 20016d0:	b9 80 08 00 	mv r1,r12
 20016d4:	38 42 00 80 	ori r2,r2,0x80
 20016d8:	59 62 00 08 	sw (r11+8),r2
 20016dc:	2b 9d 00 04 	lw ra,(sp+4)
 20016e0:	2b 8b 00 0c 	lw r11,(sp+12)
 20016e4:	2b 8c 00 08 	lw r12,(sp+8)
 20016e8:	37 9c 00 0c 	addi sp,sp,12
 20016ec:	c3 a0 00 00 	ret

020016f0 <EE_buffer_isempty>:
  	// All done!!!
  	return EE_BUF_OK;	  	
}

int EE_buffer_isempty(EE_buffer *buf)
{
 20016f0:	b8 20 18 00 	mv r3,r1
 * Disable interrupts
 */
__INLINE__ EE_FREG __ALWAYS_INLINE__ EE_mico32_disableIRQ(void)
{
    EE_FREG oldie, newie;
    asm volatile ("rcsr %0,ie":"=r"(oldie));
 20016f4:	90 00 20 00 	rcsr r4,IE
    newie = oldie & (~0x1);
    asm volatile ("wcsr ie, %0"::"r"(newie));
 20016f8:	34 01 ff fe 	mvi r1,-2
 20016fc:	a0 81 08 00 	and r1,r4,r1
 2001700:	d0 01 00 00 	wcsr IE,r1
	int retvalue;
	unsigned int intst;
	
	intst = EE_mico32_disableIRQ();				//EE_hal_disableIRQ();
	if((buf->g == buf->p) && (buf->counter==0))
 2001704:	28 62 00 00 	lw r2,(r3+0)
 2001708:	28 61 00 04 	lw r1,(r3+4)
 200170c:	34 05 00 00 	mvi r5,0
 2001710:	44 41 00 08 	be r2,r1,2001730 <EE_buffer_isempty+0x40>
		retvalue = 1;
	else
		retvalue = 0; 	
	if (EE_mico32_are_IRQs_enabled(intst))		//EE_hal_enableIRQ();
 2001714:	20 81 00 01 	andi r1,r4,0x1
 2001718:	44 20 00 04 	be r1,r0,2001728 <EE_buffer_isempty+0x38>
 * Enable interrupts
 */
__INLINE__ void __ALWAYS_INLINE__ EE_mico32_enableIRQ(void)
{
    EE_FREG oldie, newie;
    asm volatile ("rcsr %0,ie":"=r"(oldie));
 200171c:	90 00 08 00 	rcsr r1,IE
    newie = oldie | (0x1);
    asm volatile ("wcsr ie, %0"::"r"(newie));
 2001720:	38 21 00 01 	ori r1,r1,0x1
 2001724:	d0 01 00 00 	wcsr IE,r1
        EE_mico32_enableIRQ();
	
	return retvalue;	
}
 2001728:	b8 a0 08 00 	mv r1,r5
 200172c:	c3 a0 00 00 	ret
{
	int retvalue;
	unsigned int intst;
	
	intst = EE_mico32_disableIRQ();				//EE_hal_disableIRQ();
	if((buf->g == buf->p) && (buf->counter==0))
 2001730:	28 61 00 08 	lw r1,(r3+8)
 2001734:	64 25 00 00 	cmpei r5,r1,0
 2001738:	e3 ff ff f7 	bi 2001714 <EE_buffer_isempty+0x24>

0200173c <EE_buffer_putmsg>:
		
	return retvalue;	
}

int EE_buffer_putmsg(EE_buffer *buf, EE_UINT8* msg)
{
 200173c:	b8 40 30 00 	mv r6,r2
 2001740:	b8 20 28 00 	mv r5,r1
	int retvalue;
	int i=0;
	unsigned int intst;
	
	if(msg==NULL)
 2001744:	34 04 ff fc 	mvi r4,-4
 2001748:	44 40 00 25 	be r2,r0,20017dc <EE_buffer_putmsg+0xa0>
 * Disable interrupts
 */
__INLINE__ EE_FREG __ALWAYS_INLINE__ EE_mico32_disableIRQ(void)
{
    EE_FREG oldie, newie;
    asm volatile ("rcsr %0,ie":"=r"(oldie));
 200174c:	90 00 38 00 	rcsr r7,IE
    newie = oldie & (~0x1);
    asm volatile ("wcsr ie, %0"::"r"(newie));
 2001750:	34 01 ff fe 	mvi r1,-2
 2001754:	a0 e1 08 00 	and r1,r7,r1
 2001758:	d0 01 00 00 	wcsr IE,r1
		return EE_BUF_ERR_NULL;
	
	intst = EE_mico32_disableIRQ();				//EE_hal_disableIRQ();
	if((buf->g == buf->p) && (buf->counter==buf->buf_size))
 200175c:	28 a3 00 04 	lw r3,(r5+4)
 2001760:	28 a1 00 00 	lw r1,(r5+0)
 2001764:	44 23 00 20 	be r1,r3,20017e4 <EE_buffer_putmsg+0xa8>
		retvalue = EE_BUF_ERR_FULL;
	else
	{ 	
		for(i=0;i<(buf->msg_size);i++)	
 2001768:	28 a2 00 0c 	lw r2,(r5+12)
 200176c:	4c 02 00 0f 	bge r0,r2,20017a8 <EE_buffer_putmsg+0x6c>
 2001770:	34 04 00 00 	mvi r4,0
    		buf(buf->p,i) = msg[i];				//buf->data[buf->p][i] = msg[i];
 2001774:	28 a1 00 14 	lw r1,(r5+20)
 2001778:	88 43 10 00 	mul r2,r2,r3
 200177c:	b4 c4 18 00 	add r3,r6,r4
 2001780:	40 63 00 00 	lbu r3,(r3+0)
 2001784:	b4 24 08 00 	add r1,r1,r4
 2001788:	b4 22 08 00 	add r1,r1,r2
 200178c:	30 23 00 00 	sb (r1+0),r3
	intst = EE_mico32_disableIRQ();				//EE_hal_disableIRQ();
	if((buf->g == buf->p) && (buf->counter==buf->buf_size))
		retvalue = EE_BUF_ERR_FULL;
	else
	{ 	
		for(i=0;i<(buf->msg_size);i++)	
 2001790:	28 a2 00 0c 	lw r2,(r5+12)
 2001794:	34 84 00 01 	addi r4,r4,1
 2001798:	4c 82 00 03 	bge r4,r2,20017a4 <EE_buffer_putmsg+0x68>
 200179c:	28 a3 00 04 	lw r3,(r5+4)
 20017a0:	e3 ff ff f5 	bi 2001774 <EE_buffer_putmsg+0x38>
 20017a4:	28 a3 00 04 	lw r3,(r5+4)
    		buf(buf->p,i) = msg[i];				//buf->data[buf->p][i] = msg[i];
    	buf->p++;
    	if(buf->p == buf->buf_size)
 20017a8:	28 a2 00 10 	lw r2,(r5+16)
		retvalue = EE_BUF_ERR_FULL;
	else
	{ 	
		for(i=0;i<(buf->msg_size);i++)	
    		buf(buf->p,i) = msg[i];				//buf->data[buf->p][i] = msg[i];
    	buf->p++;
 20017ac:	34 61 00 01 	addi r1,r3,1
 20017b0:	58 a1 00 04 	sw (r5+4),r1
    	if(buf->p == buf->buf_size)
 20017b4:	44 22 00 11 	be r1,r2,20017f8 <EE_buffer_putmsg+0xbc>
    		buf->p = 0;							//buf->p = (buf->p % (buf->buf_size));
    	buf->counter++;
 20017b8:	28 a1 00 08 	lw r1,(r5+8)
 20017bc:	34 04 00 00 	mvi r4,0
 20017c0:	34 21 00 01 	addi r1,r1,1
 20017c4:	58 a1 00 08 	sw (r5+8),r1
    	retvalue = EE_BUF_OK;
	}
    if (EE_mico32_are_IRQs_enabled(intst))		//EE_hal_enableIRQ();
 20017c8:	20 e1 00 01 	andi r1,r7,0x1
 20017cc:	44 20 00 04 	be r1,r0,20017dc <EE_buffer_putmsg+0xa0>
 * Enable interrupts
 */
__INLINE__ void __ALWAYS_INLINE__ EE_mico32_enableIRQ(void)
{
    EE_FREG oldie, newie;
    asm volatile ("rcsr %0,ie":"=r"(oldie));
 20017d0:	90 00 08 00 	rcsr r1,IE
    newie = oldie | (0x1);
    asm volatile ("wcsr ie, %0"::"r"(newie));
 20017d4:	38 21 00 01 	ori r1,r1,0x1
 20017d8:	d0 01 00 00 	wcsr IE,r1
        EE_mico32_enableIRQ();
    
  	return retvalue;
}
 20017dc:	b8 80 08 00 	mv r1,r4
 20017e0:	c3 a0 00 00 	ret
	
	if(msg==NULL)
		return EE_BUF_ERR_NULL;
	
	intst = EE_mico32_disableIRQ();				//EE_hal_disableIRQ();
	if((buf->g == buf->p) && (buf->counter==buf->buf_size))
 20017e4:	28 a2 00 08 	lw r2,(r5+8)
 20017e8:	28 a1 00 10 	lw r1,(r5+16)
 20017ec:	34 04 ff fe 	mvi r4,-2
 20017f0:	5c 41 ff de 	bne r2,r1,2001768 <EE_buffer_putmsg+0x2c>
 20017f4:	e3 ff ff f5 	bi 20017c8 <EE_buffer_putmsg+0x8c>
	{ 	
		for(i=0;i<(buf->msg_size);i++)	
    		buf(buf->p,i) = msg[i];				//buf->data[buf->p][i] = msg[i];
    	buf->p++;
    	if(buf->p == buf->buf_size)
    		buf->p = 0;							//buf->p = (buf->p % (buf->buf_size));
 20017f8:	34 01 00 00 	mvi r1,0
 20017fc:	58 a1 00 04 	sw (r5+4),r1
 2001800:	e3 ff ff ee 	bi 20017b8 <EE_buffer_putmsg+0x7c>

02001804 <EE_buffer_getmsg>:
    
  	return retvalue;
}

int EE_buffer_getmsg(EE_buffer *buf, EE_UINT8* msg)
{
 2001804:	b8 40 30 00 	mv r6,r2
 2001808:	b8 20 28 00 	mv r5,r1
	int retvalue;
	int i=0;
	unsigned int intst;
	
	if(msg==NULL)
 200180c:	34 02 ff fc 	mvi r2,-4
 2001810:	44 c0 00 25 	be r6,r0,20018a4 <EE_buffer_getmsg+0xa0>
 * Disable interrupts
 */
__INLINE__ EE_FREG __ALWAYS_INLINE__ EE_mico32_disableIRQ(void)
{
    EE_FREG oldie, newie;
    asm volatile ("rcsr %0,ie":"=r"(oldie));
 2001814:	90 00 38 00 	rcsr r7,IE
    newie = oldie & (~0x1);
    asm volatile ("wcsr ie, %0"::"r"(newie));
 2001818:	34 01 ff fe 	mvi r1,-2
 200181c:	a0 e1 08 00 	and r1,r7,r1
 2001820:	d0 01 00 00 	wcsr IE,r1
		return EE_BUF_ERR_NULL;
	
	intst = EE_mico32_disableIRQ();				//EE_hal_disableIRQ();
	if((buf->g == buf->p) && (buf->counter==0)) 
 2001824:	28 a3 00 00 	lw r3,(r5+0)
 2001828:	28 a1 00 04 	lw r1,(r5+4)
 200182c:	44 61 00 20 	be r3,r1,20018ac <EE_buffer_getmsg+0xa8>
		retvalue = EE_BUF_ERR_EMPTY; 
	else
	{	
  		for(i=0;i<(buf->msg_size);i++)	
 2001830:	28 a2 00 0c 	lw r2,(r5+12)
 2001834:	4c 02 00 0f 	bge r0,r2,2001870 <EE_buffer_getmsg+0x6c>
 2001838:	34 04 00 00 	mvi r4,0
    		msg[i] = buf(buf->g,i);				//buf->data[buf->g][i];
 200183c:	28 a1 00 14 	lw r1,(r5+20)
 2001840:	88 62 10 00 	mul r2,r3,r2
 2001844:	b4 c4 18 00 	add r3,r6,r4
 2001848:	b4 24 08 00 	add r1,r1,r4
 200184c:	b4 22 08 00 	add r1,r1,r2
 2001850:	40 21 00 00 	lbu r1,(r1+0)
	intst = EE_mico32_disableIRQ();				//EE_hal_disableIRQ();
	if((buf->g == buf->p) && (buf->counter==0)) 
		retvalue = EE_BUF_ERR_EMPTY; 
	else
	{	
  		for(i=0;i<(buf->msg_size);i++)	
 2001854:	34 84 00 01 	addi r4,r4,1
    		msg[i] = buf(buf->g,i);				//buf->data[buf->g][i];
 2001858:	30 61 00 00 	sb (r3+0),r1
	intst = EE_mico32_disableIRQ();				//EE_hal_disableIRQ();
	if((buf->g == buf->p) && (buf->counter==0)) 
		retvalue = EE_BUF_ERR_EMPTY; 
	else
	{	
  		for(i=0;i<(buf->msg_size);i++)	
 200185c:	28 a2 00 0c 	lw r2,(r5+12)
 2001860:	4c 82 00 03 	bge r4,r2,200186c <EE_buffer_getmsg+0x68>
 2001864:	28 a3 00 00 	lw r3,(r5+0)
 2001868:	e3 ff ff f5 	bi 200183c <EE_buffer_getmsg+0x38>
 200186c:	28 a3 00 00 	lw r3,(r5+0)
    		msg[i] = buf(buf->g,i);				//buf->data[buf->g][i];
  		buf->g++;
  		if(buf->g == buf->buf_size)
 2001870:	28 a2 00 10 	lw r2,(r5+16)
		retvalue = EE_BUF_ERR_EMPTY; 
	else
	{	
  		for(i=0;i<(buf->msg_size);i++)	
    		msg[i] = buf(buf->g,i);				//buf->data[buf->g][i];
  		buf->g++;
 2001874:	34 61 00 01 	addi r1,r3,1
 2001878:	58 a1 00 00 	sw (r5+0),r1
  		if(buf->g == buf->buf_size)
 200187c:	44 22 00 10 	be r1,r2,20018bc <EE_buffer_getmsg+0xb8>
  			buf->g = 0;							//buf->g = (buf->g % (buf->buf_size));
  		buf->counter--;
 2001880:	28 a1 00 08 	lw r1,(r5+8)
 2001884:	34 02 00 00 	mvi r2,0
 2001888:	34 21 ff ff 	addi r1,r1,-1
 200188c:	58 a1 00 08 	sw (r5+8),r1
  		retvalue = EE_BUF_OK;
	}
  	if (EE_mico32_are_IRQs_enabled(intst))		//EE_hal_enableIRQ();
 2001890:	20 e1 00 01 	andi r1,r7,0x1
 2001894:	44 20 00 04 	be r1,r0,20018a4 <EE_buffer_getmsg+0xa0>
 * Enable interrupts
 */
__INLINE__ void __ALWAYS_INLINE__ EE_mico32_enableIRQ(void)
{
    EE_FREG oldie, newie;
    asm volatile ("rcsr %0,ie":"=r"(oldie));
 2001898:	90 00 08 00 	rcsr r1,IE
    newie = oldie | (0x1);
    asm volatile ("wcsr ie, %0"::"r"(newie));
 200189c:	38 21 00 01 	ori r1,r1,0x1
 20018a0:	d0 01 00 00 	wcsr IE,r1
        EE_mico32_enableIRQ();
  	
  	return retvalue;
}
 20018a4:	b8 40 08 00 	mv r1,r2
 20018a8:	c3 a0 00 00 	ret
	
	if(msg==NULL)
		return EE_BUF_ERR_NULL;
	
	intst = EE_mico32_disableIRQ();				//EE_hal_disableIRQ();
	if((buf->g == buf->p) && (buf->counter==0)) 
 20018ac:	28 a1 00 08 	lw r1,(r5+8)
 20018b0:	34 02 ff fd 	mvi r2,-3
 20018b4:	44 20 ff f7 	be r1,r0,2001890 <EE_buffer_getmsg+0x8c>
 20018b8:	e3 ff ff de 	bi 2001830 <EE_buffer_getmsg+0x2c>
	{	
  		for(i=0;i<(buf->msg_size);i++)	
    		msg[i] = buf(buf->g,i);				//buf->data[buf->g][i];
  		buf->g++;
  		if(buf->g == buf->buf_size)
  			buf->g = 0;							//buf->g = (buf->g % (buf->buf_size));
 20018bc:	34 01 00 00 	mvi r1,0
 20018c0:	58 a1 00 00 	sw (r5+0),r1
 20018c4:	e3 ff ff ef 	bi 2001880 <EE_buffer_getmsg+0x7c>

020018c8 <EE_std_run_task_code>:

/* This version should work for both the monostack and multistack versions of
 * the kernel, thanks to the macros defined in cpu/commmon/inc/ee_context.h.
 * In the mono version, all the stack-related stuff is ignored. */
EE_TID EE_std_run_task_code(EE_TID tid)
{
 20018c8:	37 9c ff fc 	addi sp,sp,-4
 20018cc:	5b 9d 00 04 	sw (sp+4),ra
 * Enable interrupts
 */
__INLINE__ void __ALWAYS_INLINE__ EE_mico32_enableIRQ(void)
{
    EE_FREG oldie, newie;
    asm volatile ("rcsr %0,ie":"=r"(oldie));
 20018d0:	90 00 10 00 	rcsr r2,IE
    newie = oldie | (0x1);
    asm volatile ("wcsr ie, %0"::"r"(newie));
 20018d4:	38 42 00 01 	ori r2,r2,0x1
 20018d8:	d0 02 00 00 	wcsr IE,r2
    EE_hal_enableIRQ();
    EE_call_task_body(tid); /* Call the task body */
 20018dc:	78 02 02 00 	mvhi r2,0x200
 20018e0:	3c 21 00 02 	sli r1,r1,2
 20018e4:	38 42 a2 5c 	ori r2,r2,0xa25c
 20018e8:	b4 41 10 00 	add r2,r2,r1
 20018ec:	28 43 00 00 	lw r3,(r2+0)
 20018f0:	d8 60 00 00 	call r3
 * Disable interrupts
 */
__INLINE__ EE_FREG __ALWAYS_INLINE__ EE_mico32_disableIRQ(void)
{
    EE_FREG oldie, newie;
    asm volatile ("rcsr %0,ie":"=r"(oldie));
 20018f4:	90 00 08 00 	rcsr r1,IE
    newie = oldie & (~0x1);
    asm volatile ("wcsr ie, %0"::"r"(newie));
 20018f8:	34 02 ff fe 	mvi r2,-2
 20018fc:	a0 22 08 00 	and r1,r1,r2
 2001900:	d0 01 00 00 	wcsr IE,r1
    EE_hal_disableIRQ();
    EE_thread_end_instance(); /* Call the scheduler */
 2001904:	f8 00 00 30 	calli 20019c4 <EE_thread_end_instance>
 2001908:	78 02 02 00 	mvhi r2,0x200
 200190c:	38 42 b5 b8 	ori r2,r2,0xb5b8
    return EE_std_endcycle_next_tid;
}
 2001910:	28 41 00 00 	lw r1,(r2+0)
 2001914:	2b 9d 00 04 	lw ra,(sp+4)
 2001918:	37 9c 00 04 	addi sp,sp,4
 200191c:	c3 a0 00 00 	ret

02001920 <EE_rq_insert>:
#include "ee_internal.h"

#ifndef __PRIVATE_RQ_INSERT__
// this function inserts a task into the ready queue
void EE_rq_insert(EE_TID t)
{
 2001920:	37 9c ff fc 	addi sp,sp,-4
 2001924:	5b 8b 00 04 	sw (sp+4),r11
  EE_TYPEPRIO prio;
  EE_TID p,q;

  p = EE_NIL;
  q = EE_rqfirst;
 2001928:	78 03 02 00 	mvhi r3,0x200
 200192c:	38 63 a8 2c 	ori r3,r3,0xa82c
  prio = EE_th_ready_prio[t];
 2001930:	78 06 02 00 	mvhi r6,0x200
 2001934:	3c 2b 00 02 	sli r11,r1,2
{
  EE_TYPEPRIO prio;
  EE_TID p,q;

  p = EE_NIL;
  q = EE_rqfirst;
 2001938:	28 67 00 00 	lw r7,(r3+0)
  prio = EE_th_ready_prio[t];
 200193c:	38 c6 a2 60 	ori r6,r6,0xa260
#include "ee_internal.h"

#ifndef __PRIVATE_RQ_INSERT__
// this function inserts a task into the ready queue
void EE_rq_insert(EE_TID t)
{
 2001940:	b8 20 50 00 	mv r10,r1

  p = EE_NIL;
  q = EE_rqfirst;
  prio = EE_th_ready_prio[t];

  while ((q != EE_NIL) && (prio <= EE_th_ready_prio[q])) {
 2001944:	34 09 ff ff 	mvi r9,-1
  EE_TYPEPRIO prio;
  EE_TID p,q;

  p = EE_NIL;
  q = EE_rqfirst;
  prio = EE_th_ready_prio[t];
 2001948:	b4 cb 08 00 	add r1,r6,r11
 200194c:	28 28 00 00 	lw r8,(r1+0)

  while ((q != EE_NIL) && (prio <= EE_th_ready_prio[q])) {
 2001950:	44 e9 00 19 	be r7,r9,20019b4 <EE_rq_insert+0x94>
 2001954:	3c e4 00 02 	sli r4,r7,2
 2001958:	b4 c4 08 00 	add r1,r6,r4
 200195c:	28 22 00 00 	lw r2,(r1+0)
 2001960:	55 02 00 15 	bgu r8,r2,20019b4 <EE_rq_insert+0x94>
 2001964:	78 05 02 00 	mvhi r5,0x200
 2001968:	38 a5 a8 24 	ori r5,r5,0xa824
 200196c:	e0 00 00 05 	bi 2001980 <EE_rq_insert+0x60>
 2001970:	b4 c4 08 00 	add r1,r6,r4
 2001974:	28 22 00 00 	lw r2,(r1+0)
 2001978:	55 02 00 06 	bgu r8,r2,2001990 <EE_rq_insert+0x70>
 200197c:	b8 60 38 00 	mv r7,r3
    p = q;
    q = EE_th_next[q];
 2001980:	b4 a4 08 00 	add r1,r5,r4
 2001984:	28 23 00 00 	lw r3,(r1+0)

  p = EE_NIL;
  q = EE_rqfirst;
  prio = EE_th_ready_prio[t];

  while ((q != EE_NIL) && (prio <= EE_th_ready_prio[q])) {
 2001988:	3c 64 00 02 	sli r4,r3,2
 200198c:	5c 69 ff f9 	bne r3,r9,2001970 <EE_rq_insert+0x50>
    p = q;
    q = EE_th_next[q];
  }

  if (p != EE_NIL)
    EE_th_next[p] = t;
 2001990:	3c e1 00 02 	sli r1,r7,2

  p = EE_NIL;
  q = EE_rqfirst;
  prio = EE_th_ready_prio[t];

  while ((q != EE_NIL) && (prio <= EE_th_ready_prio[q])) {
 2001994:	b8 60 38 00 	mv r7,r3
    p = q;
    q = EE_th_next[q];
  }

  if (p != EE_NIL)
    EE_th_next[p] = t;
 2001998:	b4 a1 08 00 	add r1,r5,r1
 200199c:	58 2a 00 00 	sw (r1+0),r10
  else
    EE_rqfirst = t;

  EE_th_next[t] = q;
 20019a0:	b4 ab 08 00 	add r1,r5,r11
 20019a4:	58 27 00 00 	sw (r1+0),r7
}
 20019a8:	2b 8b 00 04 	lw r11,(sp+4)
 20019ac:	37 9c 00 04 	addi sp,sp,4
 20019b0:	c3 a0 00 00 	ret
 20019b4:	78 05 02 00 	mvhi r5,0x200
  }

  if (p != EE_NIL)
    EE_th_next[p] = t;
  else
    EE_rqfirst = t;
 20019b8:	58 6a 00 00 	sw (r3+0),r10
 20019bc:	38 a5 a8 24 	ori r5,r5,0xa824
 20019c0:	e3 ff ff f8 	bi 20019a0 <EE_rq_insert+0x80>

020019c4 <EE_thread_end_instance>:

#include "ee_internal.h"

#ifndef __PRIVATE_THREAD_END_INSTANCE__
void EE_thread_end_instance(void)
{
 20019c4:	37 9c ff ec 	addi sp,sp,-20
 20019c8:	5b 8b 00 14 	sw (sp+20),r11
 20019cc:	5b 8c 00 10 	sw (sp+16),r12
 20019d0:	5b 8d 00 0c 	sw (sp+12),r13
 20019d4:	5b 8e 00 08 	sw (sp+8),r14
 20019d8:	5b 9d 00 04 	sw (sp+4),ra

/* return the first stacked task (the running task) without extracting it */
#ifndef __PRIVATE_STK_QUERYFIRST__
__INLINE__ EE_TID __ALWAYS_INLINE__ EE_stk_queryfirst(void)
{
    return EE_stkfirst;  
 20019dc:	78 0d 02 00 	mvhi r13,0x200
 20019e0:	39 ad a8 28 	ori r13,r13,0xa828
 20019e4:	29 a7 00 00 	lw r7,(r13+0)
   * suspended!!! */
  EE_th_status[current] = EE_READY;
#endif
  
  /* reset the task priority bit in the system_ceiling */
  EE_sys_ceiling &= ~EE_th_dispatch_prio[current];
 20019e8:	78 0e 02 00 	mvhi r14,0x200
 20019ec:	39 ce a2 64 	ori r14,r14,0xa264
  EE_TID current;
  
  current = EE_stk_queryfirst();
  
  /* decrease the pending activations... ready or stacked => (nact>0) */
  EE_th_nact[current]--;
 20019f0:	3c e3 00 02 	sli r3,r7,2
 20019f4:	78 04 02 00 	mvhi r4,0x200
   * suspended!!! */
  EE_th_status[current] = EE_READY;
#endif
  
  /* reset the task priority bit in the system_ceiling */
  EE_sys_ceiling &= ~EE_th_dispatch_prio[current];
 20019f8:	b5 c3 08 00 	add r1,r14,r3
 20019fc:	28 22 00 00 	lw r2,(r1+0)

/* extract the running task from the stack */
#ifndef __PRIVATE_STK_GETFIRST__
__INLINE__ void __ALWAYS_INLINE__ EE_stk_getfirst(void)
{
    EE_stkfirst = EE_th_next[EE_stkfirst];
 2001a00:	78 01 02 00 	mvhi r1,0x200
  EE_TID current;
  
  current = EE_stk_queryfirst();
  
  /* decrease the pending activations... ready or stacked => (nact>0) */
  EE_th_nact[current]--;
 2001a04:	38 84 b5 28 	ori r4,r4,0xb528
   * suspended!!! */
  EE_th_status[current] = EE_READY;
#endif
  
  /* reset the task priority bit in the system_ceiling */
  EE_sys_ceiling &= ~EE_th_dispatch_prio[current];
 2001a08:	78 0c 02 00 	mvhi r12,0x200
 2001a0c:	38 21 a8 24 	ori r1,r1,0xa824
  EE_TID current;
  
  current = EE_stk_queryfirst();
  
  /* decrease the pending activations... ready or stacked => (nact>0) */
  EE_th_nact[current]--;
 2001a10:	b4 83 20 00 	add r4,r4,r3
   * suspended!!! */
  EE_th_status[current] = EE_READY;
#endif
  
  /* reset the task priority bit in the system_ceiling */
  EE_sys_ceiling &= ~EE_th_dispatch_prio[current];
 2001a14:	39 8c b3 14 	ori r12,r12,0xb314
 2001a18:	b4 23 08 00 	add r1,r1,r3
  EE_TID current;
  
  current = EE_stk_queryfirst();
  
  /* decrease the pending activations... ready or stacked => (nact>0) */
  EE_th_nact[current]--;
 2001a1c:	28 85 00 00 	lw r5,(r4+0)
   * suspended!!! */
  EE_th_status[current] = EE_READY;
#endif
  
  /* reset the task priority bit in the system_ceiling */
  EE_sys_ceiling &= ~EE_th_dispatch_prio[current];
 2001a20:	29 86 00 00 	lw r6,(r12+0)
 2001a24:	28 21 00 00 	lw r1,(r1+0)
  
#if defined(__MULTI__) || defined(__WITH_STATUS__)
  /* The task state switches from STACKED TO READY because it ends its
   * instance. Note that status=READY and nact=0 ==>> the task is
   * suspended!!! */
  EE_th_status[current] = EE_READY;
 2001a28:	78 0b 02 00 	mvhi r11,0x200
 2001a2c:	39 6b a8 20 	ori r11,r11,0xa820
#endif
  
  /* reset the task priority bit in the system_ceiling */
  EE_sys_ceiling &= ~EE_th_dispatch_prio[current];
 2001a30:	a4 40 10 00 	not r2,r2
 2001a34:	a0 46 10 00 	and r2,r2,r6
 2001a38:	59 a1 00 00 	sw (r13+0),r1
  EE_TID current;
  
  current = EE_stk_queryfirst();
  
  /* decrease the pending activations... ready or stacked => (nact>0) */
  EE_th_nact[current]--;
 2001a3c:	34 a5 ff ff 	addi r5,r5,-1
  
#if defined(__MULTI__) || defined(__WITH_STATUS__)
  /* The task state switches from STACKED TO READY because it ends its
   * instance. Note that status=READY and nact=0 ==>> the task is
   * suspended!!! */
  EE_th_status[current] = EE_READY;
 2001a40:	b5 63 18 00 	add r3,r11,r3
 2001a44:	34 01 00 01 	mvi r1,1
 2001a48:	58 61 00 00 	sw (r3+0),r1
  EE_TID current;
  
  current = EE_stk_queryfirst();
  
  /* decrease the pending activations... ready or stacked => (nact>0) */
  EE_th_nact[current]--;
 2001a4c:	58 85 00 00 	sw (r4+0),r5
   * suspended!!! */
  EE_th_status[current] = EE_READY;
#endif
  
  /* reset the task priority bit in the system_ceiling */
  EE_sys_ceiling &= ~EE_th_dispatch_prio[current];
 2001a50:	59 82 00 00 	sw (r12+0),r2
  
  /* extract the task from the stk data structure */
  EE_stk_getfirst();
  
  if (EE_th_nact[current] > 0) {
 2001a54:	5c a0 00 30 	bne r5,r0,2001b14 <EE_thread_end_instance+0x150>

/* return the first ready task without extracting it */
#ifndef __PRIVATE_RQ_QUERYFIRST__
__INLINE__ EE_TID __ALWAYS_INLINE__ EE_rq_queryfirst(void)
{
    return EE_rqfirst;  
 2001a58:	78 01 02 00 	mvhi r1,0x200
 2001a5c:	38 21 a8 2c 	ori r1,r1,0xa82c
 2001a60:	28 21 00 00 	lw r1,(r1+0)
    EE_rq_insert(current);
  }
  
  /* check if there is to schedule a ready task pop a preempted
   * task   */
  if (EE_rq_queryfirst() == EE_NIL ||
 2001a64:	34 02 ff ff 	mvi r2,-1
 2001a68:	44 22 00 08 	be r1,r2,2001a88 <EE_thread_end_instance+0xc4>
 2001a6c:	3c 23 00 02 	sli r3,r1,2
 2001a70:	78 01 02 00 	mvhi r1,0x200
 2001a74:	38 21 a2 60 	ori r1,r1,0xa260
 2001a78:	b4 23 08 00 	add r1,r1,r3
 2001a7c:	28 22 00 00 	lw r2,(r1+0)
 2001a80:	29 85 00 00 	lw r5,(r12+0)
 2001a84:	54 45 00 0f 	bgu r2,r5,2001ac0 <EE_thread_end_instance+0xfc>
}


__INLINE__ void __ALWAYS_INLINE__ EE_hal_endcycle_stacked(EE_TID tid)
{
    EE_std_endcycle_next_tid = EE_std_mark_tid_stacked(tid);
 2001a88:	29 a1 00 00 	lw r1,(r13+0)
      EE_hal_endcycle_ready(EE_rq2stk_exchange());
#else
    EE_hal_endcycle_ready(EE_rq2stk_exchange());
#endif
  }
}  
 2001a8c:	78 02 80 00 	mvhi r2,0x8000
 2001a90:	38 42 00 00 	ori r2,r2,0x0
 2001a94:	78 03 02 00 	mvhi r3,0x200
 2001a98:	b8 22 08 00 	or r1,r1,r2
 2001a9c:	38 63 b5 b8 	ori r3,r3,0xb5b8
 2001aa0:	58 61 00 00 	sw (r3+0),r1
 2001aa4:	2b 9d 00 04 	lw ra,(sp+4)
 2001aa8:	2b 8b 00 14 	lw r11,(sp+20)
 2001aac:	2b 8c 00 10 	lw r12,(sp+16)
 2001ab0:	2b 8d 00 0c 	lw r13,(sp+12)
 2001ab4:	2b 8e 00 08 	lw r14,(sp+8)
 2001ab8:	37 9c 00 14 	addi sp,sp,20
 2001abc:	c3 a0 00 00 	ret
    
#if defined(__MULTI__) || defined(__WITH_STATUS__)
    EE_th_status[EE_rq_queryfirst()] = EE_STACKED;
#endif

    EE_sys_ceiling |= EE_th_dispatch_prio[EE_rq_queryfirst()];
 2001ac0:	b5 c3 08 00 	add r1,r14,r3
  else { 
    /* we have to schedule a ready task */
#if defined(__MULTI__)
    register int flag;
    
    flag = EE_th_status[EE_rq_queryfirst()] & EE_WASSTACKED;
 2001ac4:	b5 63 20 00 	add r4,r11,r3
    
#if defined(__MULTI__) || defined(__WITH_STATUS__)
    EE_th_status[EE_rq_queryfirst()] = EE_STACKED;
#endif

    EE_sys_ceiling |= EE_th_dispatch_prio[EE_rq_queryfirst()];
 2001ac8:	28 22 00 00 	lw r2,(r1+0)
  else { 
    /* we have to schedule a ready task */
#if defined(__MULTI__)
    register int flag;
    
    flag = EE_th_status[EE_rq_queryfirst()] & EE_WASSTACKED;
 2001acc:	28 83 00 00 	lw r3,(r4+0)
#endif
    
#if defined(__MULTI__) || defined(__WITH_STATUS__)
    EE_th_status[EE_rq_queryfirst()] = EE_STACKED;
 2001ad0:	34 01 00 02 	mvi r1,2
#endif

    EE_sys_ceiling |= EE_th_dispatch_prio[EE_rq_queryfirst()];
 2001ad4:	b8 45 10 00 	or r2,r2,r5
    
    flag = EE_th_status[EE_rq_queryfirst()] & EE_WASSTACKED;
#endif
    
#if defined(__MULTI__) || defined(__WITH_STATUS__)
    EE_th_status[EE_rq_queryfirst()] = EE_STACKED;
 2001ad8:	58 81 00 00 	sw (r4+0),r1
#endif

    EE_sys_ceiling |= EE_th_dispatch_prio[EE_rq_queryfirst()];
 2001adc:	59 82 00 00 	sw (r12+0),r2
  else { 
    /* we have to schedule a ready task */
#if defined(__MULTI__)
    register int flag;
    
    flag = EE_th_status[EE_rq_queryfirst()] & EE_WASSTACKED;
 2001ae0:	20 63 00 08 	andi r3,r3,0x8
#endif

    EE_sys_ceiling |= EE_th_dispatch_prio[EE_rq_queryfirst()];

#if defined(__MULTI__)
    if (flag)
 2001ae4:	5c 60 00 0f 	bne r3,r0,2001b20 <EE_thread_end_instance+0x15c>
      EE_hal_endcycle_stacked(EE_rq2stk_exchange());
    else
      EE_hal_endcycle_ready(EE_rq2stk_exchange());
 2001ae8:	fb ff fc a5 	calli 2000d7c <EE_rq2stk_exchange>
}


__INLINE__ void __ALWAYS_INLINE__ EE_hal_endcycle_ready(EE_TID tid)
{
    EE_std_endcycle_next_tid = tid;
 2001aec:	78 02 02 00 	mvhi r2,0x200
 2001af0:	38 42 b5 b8 	ori r2,r2,0xb5b8
 2001af4:	58 41 00 00 	sw (r2+0),r1
#else
    EE_hal_endcycle_ready(EE_rq2stk_exchange());
#endif
  }
}  
 2001af8:	2b 9d 00 04 	lw ra,(sp+4)
 2001afc:	2b 8b 00 14 	lw r11,(sp+20)
 2001b00:	2b 8c 00 10 	lw r12,(sp+16)
 2001b04:	2b 8d 00 0c 	lw r13,(sp+12)
 2001b08:	2b 8e 00 08 	lw r14,(sp+8)
 2001b0c:	37 9c 00 14 	addi sp,sp,20
 2001b10:	c3 a0 00 00 	ret
  
  if (EE_th_nact[current] > 0) {
    /* there are pending activations...  */
    /* we have to reinsert the task into the ready queue before
     * rescheduling!!! */
    EE_rq_insert(current);
 2001b14:	b8 e0 08 00 	mv r1,r7
 2001b18:	fb ff ff 82 	calli 2001920 <EE_rq_insert>
 2001b1c:	e3 ff ff cf 	bi 2001a58 <EE_thread_end_instance+0x94>

    EE_sys_ceiling |= EE_th_dispatch_prio[EE_rq_queryfirst()];

#if defined(__MULTI__)
    if (flag)
      EE_hal_endcycle_stacked(EE_rq2stk_exchange());
 2001b20:	fb ff fc 97 	calli 2000d7c <EE_rq2stk_exchange>
 2001b24:	e3 ff ff da 	bi 2001a8c <EE_thread_end_instance+0xc8>

02001b28 <_exit>:
 2001b28:	34 08 00 01 	mvi r8,1
 2001b2c:	ac 00 00 07 	scall

02001b30 <memcpy>:
 2001b30:	b8 40 38 00 	mv r7,r2
 2001b34:	34 04 00 0f 	mvi r4,15
 2001b38:	b8 60 10 00 	mv r2,r3
 2001b3c:	b8 20 40 00 	mv r8,r1
 2001b40:	b8 20 30 00 	mv r6,r1
 2001b44:	b8 e0 28 00 	mv r5,r7
 2001b48:	50 82 00 04 	bgeu r4,r2,2001b58 <memcpy+0x28>
 2001b4c:	b8 e1 08 00 	or r1,r7,r1
 2001b50:	20 21 00 03 	andi r1,r1,0x3
 2001b54:	44 20 00 0b 	be r1,r0,2001b80 <memcpy+0x50>
 2001b58:	44 60 00 08 	be r3,r0,2001b78 <memcpy+0x48>
 2001b5c:	34 04 00 00 	mvi r4,0
 2001b60:	b4 a4 08 00 	add r1,r5,r4
 2001b64:	40 21 00 00 	lbu r1,(r1+0)
 2001b68:	b4 c4 10 00 	add r2,r6,r4
 2001b6c:	34 84 00 01 	addi r4,r4,1
 2001b70:	30 41 00 00 	sb (r2+0),r1
 2001b74:	5c 83 ff fb 	bne r4,r3,2001b60 <memcpy+0x30>
 2001b78:	b9 00 08 00 	mv r1,r8
 2001b7c:	c3 a0 00 00 	ret
 2001b80:	b8 80 18 00 	mv r3,r4
 2001b84:	b8 e0 08 00 	mv r1,r7
 2001b88:	b9 00 20 00 	mv r4,r8
 2001b8c:	b8 40 28 00 	mv r5,r2
 2001b90:	28 26 00 00 	lw r6,(r1+0)
 2001b94:	34 a5 ff f0 	addi r5,r5,-16
 2001b98:	58 86 00 00 	sw (r4+0),r6
 2001b9c:	28 26 00 04 	lw r6,(r1+4)
 2001ba0:	58 86 00 04 	sw (r4+4),r6
 2001ba4:	28 26 00 08 	lw r6,(r1+8)
 2001ba8:	58 86 00 08 	sw (r4+8),r6
 2001bac:	28 26 00 0c 	lw r6,(r1+12)
 2001bb0:	34 21 00 10 	addi r1,r1,16
 2001bb4:	58 86 00 0c 	sw (r4+12),r6
 2001bb8:	34 84 00 10 	addi r4,r4,16
 2001bbc:	54 a3 ff f5 	bgu r5,r3,2001b90 <memcpy+0x60>
 2001bc0:	34 42 ff f0 	addi r2,r2,-16
 2001bc4:	00 41 00 04 	srui r1,r2,4
 2001bc8:	20 43 00 0f 	andi r3,r2,0xf
 2001bcc:	34 21 00 01 	addi r1,r1,1
 2001bd0:	3c 21 00 04 	sli r1,r1,4
 2001bd4:	34 02 00 03 	mvi r2,3
 2001bd8:	b4 e1 38 00 	add r7,r7,r1
 2001bdc:	b5 01 28 00 	add r5,r8,r1
 2001be0:	50 43 00 11 	bgeu r2,r3,2001c24 <memcpy+0xf4>
 2001be4:	b8 40 30 00 	mv r6,r2
 2001be8:	34 04 00 00 	mvi r4,0
 2001bec:	b4 e4 10 00 	add r2,r7,r4
 2001bf0:	28 42 00 00 	lw r2,(r2+0)
 2001bf4:	b4 a4 08 00 	add r1,r5,r4
 2001bf8:	34 84 00 04 	addi r4,r4,4
 2001bfc:	58 22 00 00 	sw (r1+0),r2
 2001c00:	c8 64 08 00 	sub r1,r3,r4
 2001c04:	54 26 ff fa 	bgu r1,r6,2001bec <memcpy+0xbc>
 2001c08:	34 62 ff fc 	addi r2,r3,-4
 2001c0c:	00 41 00 02 	srui r1,r2,2
 2001c10:	20 43 00 03 	andi r3,r2,0x3
 2001c14:	34 21 00 01 	addi r1,r1,1
 2001c18:	3c 21 00 02 	sli r1,r1,2
 2001c1c:	b4 a1 28 00 	add r5,r5,r1
 2001c20:	b4 e1 38 00 	add r7,r7,r1
 2001c24:	b8 a0 30 00 	mv r6,r5
 2001c28:	b8 e0 28 00 	mv r5,r7
 2001c2c:	e3 ff ff cb 	bi 2001b58 <memcpy+0x28>

02001c30 <sprintf>:
 2001c30:	37 9c ff 7c 	addi sp,sp,-132
 2001c34:	5b 8b 00 0c 	sw (sp+12),r11
 2001c38:	5b 8c 00 08 	sw (sp+8),r12
 2001c3c:	5b 9d 00 04 	sw (sp+4),ra
 2001c40:	78 09 02 00 	mvhi r9,0x200
 2001c44:	39 29 aa e8 	ori r9,r9,0xaae8
 2001c48:	b8 20 60 00 	mv r12,r1
 2001c4c:	29 21 00 00 	lw r1,(r9+0)
 2001c50:	78 09 7f ff 	mvhi r9,0x7fff
 2001c54:	39 29 ff ff 	ori r9,r9,0xffff
 2001c58:	5b 83 00 70 	sw (sp+112),r3
 2001c5c:	5b 84 00 74 	sw (sp+116),r4
 2001c60:	5b 82 00 6c 	sw (sp+108),r2
 2001c64:	b8 40 18 00 	mv r3,r2
 2001c68:	34 0a ff ff 	mvi r10,-1
 2001c6c:	37 82 00 10 	addi r2,sp,16
 2001c70:	34 0b 02 08 	mvi r11,520
 2001c74:	37 84 00 70 	addi r4,sp,112
 2001c78:	5b 85 00 78 	sw (sp+120),r5
 2001c7c:	5b 86 00 7c 	sw (sp+124),r6
 2001c80:	5b 87 00 80 	sw (sp+128),r7
 2001c84:	5b 88 00 84 	sw (sp+132),r8
 2001c88:	0f 8b 00 1c 	sh (sp+28),r11
 2001c8c:	5b 8c 00 20 	sw (sp+32),r12
 2001c90:	5b 89 00 24 	sw (sp+36),r9
 2001c94:	0f 8a 00 1e 	sh (sp+30),r10
 2001c98:	5b 8c 00 10 	sw (sp+16),r12
 2001c9c:	5b 89 00 18 	sw (sp+24),r9
 2001ca0:	f8 00 00 8b 	calli 2001ecc <_vfprintf_r>
 2001ca4:	2b 82 00 10 	lw r2,(sp+16)
 2001ca8:	34 03 00 00 	mvi r3,0
 2001cac:	30 43 00 00 	sb (r2+0),r3
 2001cb0:	2b 9d 00 04 	lw ra,(sp+4)
 2001cb4:	2b 8b 00 0c 	lw r11,(sp+12)
 2001cb8:	2b 8c 00 08 	lw r12,(sp+8)
 2001cbc:	37 9c 00 84 	addi sp,sp,132
 2001cc0:	c3 a0 00 00 	ret

02001cc4 <strcat>:
 2001cc4:	37 9c ff f8 	addi sp,sp,-8
 2001cc8:	5b 8b 00 08 	sw (sp+8),r11
 2001ccc:	5b 9d 00 04 	sw (sp+4),ra
 2001cd0:	20 26 00 03 	andi r6,r1,0x3
 2001cd4:	b8 40 38 00 	mv r7,r2
 2001cd8:	b8 20 58 00 	mv r11,r1
 2001cdc:	b8 20 10 00 	mv r2,r1
 2001ce0:	5c c0 00 17 	bne r6,r0,2001d3c <strcat+0x78>
 2001ce4:	28 21 00 00 	lw r1,(r1+0)
 2001ce8:	78 05 fe fe 	mvhi r5,0xfefe
 2001cec:	38 a5 fe ff 	ori r5,r5,0xfeff
 2001cf0:	a4 20 10 00 	not r2,r1
 2001cf4:	78 04 80 80 	mvhi r4,0x8080
 2001cf8:	b4 25 08 00 	add r1,r1,r5
 2001cfc:	a0 22 08 00 	and r1,r1,r2
 2001d00:	38 84 80 80 	ori r4,r4,0x8080
 2001d04:	a0 24 08 00 	and r1,r1,r4
 2001d08:	b9 60 18 00 	mv r3,r11
 2001d0c:	5c 26 00 08 	bne r1,r6,2001d2c <strcat+0x68>
 2001d10:	34 63 00 04 	addi r3,r3,4
 2001d14:	28 61 00 00 	lw r1,(r3+0)
 2001d18:	a4 20 10 00 	not r2,r1
 2001d1c:	b4 25 08 00 	add r1,r1,r5
 2001d20:	a0 22 08 00 	and r1,r1,r2
 2001d24:	a0 24 08 00 	and r1,r1,r4
 2001d28:	44 20 ff fa 	be r1,r0,2001d10 <strcat+0x4c>
 2001d2c:	b8 60 10 00 	mv r2,r3
 2001d30:	40 41 00 00 	lbu r1,(r2+0)
 2001d34:	44 20 00 04 	be r1,r0,2001d44 <strcat+0x80>
 2001d38:	34 42 00 01 	addi r2,r2,1
 2001d3c:	40 41 00 00 	lbu r1,(r2+0)
 2001d40:	5c 20 ff fe 	bne r1,r0,2001d38 <strcat+0x74>
 2001d44:	b8 40 08 00 	mv r1,r2
 2001d48:	b8 e0 10 00 	mv r2,r7
 2001d4c:	f8 00 00 06 	calli 2001d64 <strcpy>
 2001d50:	b9 60 08 00 	mv r1,r11
 2001d54:	2b 9d 00 04 	lw ra,(sp+4)
 2001d58:	2b 8b 00 08 	lw r11,(sp+8)
 2001d5c:	37 9c 00 08 	addi sp,sp,8
 2001d60:	c3 a0 00 00 	ret

02001d64 <strcpy>:
 2001d64:	b8 20 40 00 	mv r8,r1
 2001d68:	b8 41 08 00 	or r1,r2,r1
 2001d6c:	20 29 00 03 	andi r9,r1,0x3
 2001d70:	b9 00 30 00 	mv r6,r8
 2001d74:	b8 40 28 00 	mv r5,r2
 2001d78:	5d 20 00 17 	bne r9,r0,2001dd4 <strcpy+0x70>
 2001d7c:	28 44 00 00 	lw r4,(r2+0)
 2001d80:	78 07 fe fe 	mvhi r7,0xfefe
 2001d84:	38 e7 fe ff 	ori r7,r7,0xfeff
 2001d88:	b8 40 28 00 	mv r5,r2
 2001d8c:	a4 80 08 00 	not r1,r4
 2001d90:	b4 87 10 00 	add r2,r4,r7
 2001d94:	78 06 80 80 	mvhi r6,0x8080
 2001d98:	a0 22 08 00 	and r1,r1,r2
 2001d9c:	38 c6 80 80 	ori r6,r6,0x8080
 2001da0:	a0 26 08 00 	and r1,r1,r6
 2001da4:	b9 00 18 00 	mv r3,r8
 2001da8:	5c 29 00 0a 	bne r1,r9,2001dd0 <strcpy+0x6c>
 2001dac:	58 64 00 00 	sw (r3+0),r4
 2001db0:	34 a5 00 04 	addi r5,r5,4
 2001db4:	28 a4 00 00 	lw r4,(r5+0)
 2001db8:	34 63 00 04 	addi r3,r3,4
 2001dbc:	a4 80 08 00 	not r1,r4
 2001dc0:	b4 87 10 00 	add r2,r4,r7
 2001dc4:	a0 22 08 00 	and r1,r1,r2
 2001dc8:	a0 26 08 00 	and r1,r1,r6
 2001dcc:	44 20 ff f8 	be r1,r0,2001dac <strcpy+0x48>
 2001dd0:	b8 60 30 00 	mv r6,r3
 2001dd4:	34 04 00 00 	mvi r4,0
 2001dd8:	b4 a4 08 00 	add r1,r5,r4
 2001ddc:	40 23 00 00 	lbu r3,(r1+0)
 2001de0:	b4 c4 10 00 	add r2,r6,r4
 2001de4:	34 84 00 01 	addi r4,r4,1
 2001de8:	30 43 00 00 	sb (r2+0),r3
 2001dec:	5c 60 ff fb 	bne r3,r0,2001dd8 <strcpy+0x74>
 2001df0:	b9 00 08 00 	mv r1,r8
 2001df4:	c3 a0 00 00 	ret

02001df8 <strlen>:
 2001df8:	20 27 00 03 	andi r7,r1,0x3
 2001dfc:	b8 20 30 00 	mv r6,r1
 2001e00:	b8 20 10 00 	mv r2,r1
 2001e04:	5c e0 00 17 	bne r7,r0,2001e60 <strlen+0x68>
 2001e08:	28 21 00 00 	lw r1,(r1+0)
 2001e0c:	78 05 fe fe 	mvhi r5,0xfefe
 2001e10:	38 a5 fe ff 	ori r5,r5,0xfeff
 2001e14:	a4 20 10 00 	not r2,r1
 2001e18:	78 04 80 80 	mvhi r4,0x8080
 2001e1c:	b4 25 08 00 	add r1,r1,r5
 2001e20:	a0 22 08 00 	and r1,r1,r2
 2001e24:	38 84 80 80 	ori r4,r4,0x8080
 2001e28:	a0 24 08 00 	and r1,r1,r4
 2001e2c:	b8 c0 18 00 	mv r3,r6
 2001e30:	5c 27 00 08 	bne r1,r7,2001e50 <strlen+0x58>
 2001e34:	34 63 00 04 	addi r3,r3,4
 2001e38:	28 61 00 00 	lw r1,(r3+0)
 2001e3c:	a4 20 10 00 	not r2,r1
 2001e40:	b4 25 08 00 	add r1,r1,r5
 2001e44:	a0 22 08 00 	and r1,r1,r2
 2001e48:	a0 24 08 00 	and r1,r1,r4
 2001e4c:	44 20 ff fa 	be r1,r0,2001e34 <strlen+0x3c>
 2001e50:	b8 60 10 00 	mv r2,r3
 2001e54:	40 41 00 00 	lbu r1,(r2+0)
 2001e58:	44 20 00 04 	be r1,r0,2001e68 <strlen+0x70>
 2001e5c:	34 42 00 01 	addi r2,r2,1
 2001e60:	40 41 00 00 	lbu r1,(r2+0)
 2001e64:	5c 20 ff fe 	bne r1,r0,2001e5c <strlen+0x64>
 2001e68:	c8 46 08 00 	sub r1,r2,r6
 2001e6c:	c3 a0 00 00 	ret

02001e70 <__sprint>:
 2001e70:	37 9c ff f4 	addi sp,sp,-12
 2001e74:	5b 8b 00 0c 	sw (sp+12),r11
 2001e78:	5b 8c 00 08 	sw (sp+8),r12
 2001e7c:	5b 9d 00 04 	sw (sp+4),ra
 2001e80:	28 43 00 08 	lw r3,(r2+8)
 2001e84:	34 0c 00 00 	mvi r12,0
 2001e88:	b8 40 58 00 	mv r11,r2
 2001e8c:	5c 6c 00 08 	bne r3,r12,2001eac <__sprint+0x3c>
 2001e90:	b8 60 08 00 	mv r1,r3
 2001e94:	58 43 00 04 	sw (r2+4),r3
 2001e98:	2b 9d 00 04 	lw ra,(sp+4)
 2001e9c:	2b 8b 00 0c 	lw r11,(sp+12)
 2001ea0:	2b 8c 00 08 	lw r12,(sp+8)
 2001ea4:	37 9c 00 0c 	addi sp,sp,12
 2001ea8:	c3 a0 00 00 	ret
 2001eac:	f8 00 0f ca 	calli 2005dd4 <__sfvwrite>
 2001eb0:	59 6c 00 04 	sw (r11+4),r12
 2001eb4:	59 6c 00 08 	sw (r11+8),r12
 2001eb8:	2b 9d 00 04 	lw ra,(sp+4)
 2001ebc:	2b 8b 00 0c 	lw r11,(sp+12)
 2001ec0:	2b 8c 00 08 	lw r12,(sp+8)
 2001ec4:	37 9c 00 0c 	addi sp,sp,12
 2001ec8:	c3 a0 00 00 	ret

02001ecc <_vfprintf_r>:
 2001ecc:	37 9c f9 14 	addi sp,sp,-1772
 2001ed0:	5b 8b 00 44 	sw (sp+68),r11
 2001ed4:	5b 8c 00 40 	sw (sp+64),r12
 2001ed8:	5b 8d 00 3c 	sw (sp+60),r13
 2001edc:	5b 8e 00 38 	sw (sp+56),r14
 2001ee0:	5b 8f 00 34 	sw (sp+52),r15
 2001ee4:	5b 90 00 30 	sw (sp+48),r16
 2001ee8:	5b 91 00 2c 	sw (sp+44),r17
 2001eec:	5b 92 00 28 	sw (sp+40),r18
 2001ef0:	5b 93 00 24 	sw (sp+36),r19
 2001ef4:	5b 94 00 20 	sw (sp+32),r20
 2001ef8:	5b 95 00 1c 	sw (sp+28),r21
 2001efc:	5b 96 00 18 	sw (sp+24),r22
 2001f00:	5b 97 00 14 	sw (sp+20),r23
 2001f04:	5b 98 00 10 	sw (sp+16),r24
 2001f08:	5b 99 00 0c 	sw (sp+12),r25
 2001f0c:	5b 9b 00 08 	sw (sp+8),fp
 2001f10:	5b 9d 00 04 	sw (sp+4),ra
 2001f14:	b8 40 c8 00 	mv r25,r2
 2001f18:	5b 81 00 70 	sw (sp+112),r1
 2001f1c:	b8 60 58 00 	mv r11,r3
 2001f20:	5b 84 00 6c 	sw (sp+108),r4
 2001f24:	f8 00 10 cd 	calli 2006258 <localeconv>
 2001f28:	78 02 02 00 	mvhi r2,0x200
 2001f2c:	38 42 aa e8 	ori r2,r2,0xaae8
 2001f30:	28 21 00 00 	lw r1,(r1+0)
 2001f34:	28 42 00 00 	lw r2,(r2+0)
 2001f38:	5b 81 00 7c 	sw (sp+124),r1
 2001f3c:	44 40 00 03 	be r2,r0,2001f48 <_vfprintf_r+0x7c>
 2001f40:	28 41 00 38 	lw r1,(r2+56)
 2001f44:	44 20 02 cb 	be r1,r0,2002a70 <_vfprintf_r+0xba4>
 2001f48:	1f 23 00 0c 	lh r3,(r25+12)
 2001f4c:	20 62 ff ff 	andi r2,r3,0xffff
 2001f50:	20 41 00 08 	andi r1,r2,0x8
 2001f54:	44 20 04 39 	be r1,r0,2003038 <_vfprintf_r+0x116c>
 2001f58:	2b 21 00 10 	lw r1,(r25+16)
 2001f5c:	44 20 04 37 	be r1,r0,2003038 <_vfprintf_r+0x116c>
 2001f60:	20 42 00 1a 	andi r2,r2,0x1a
 2001f64:	34 01 00 0a 	mvi r1,10
 2001f68:	44 41 02 97 	be r2,r1,20029c4 <_vfprintf_r+0xaf8>
 2001f6c:	78 02 02 00 	mvhi r2,0x200
 2001f70:	5b 82 00 68 	sw (sp+104),r2
 2001f74:	78 02 02 00 	mvhi r2,0x200
 2001f78:	5b 82 00 60 	sw (sp+96),r2
 2001f7c:	78 02 80 00 	mvhi r2,0x8000
 2001f80:	5b 82 00 58 	sw (sp+88),r2
 2001f84:	78 02 02 00 	mvhi r2,0x200
 2001f88:	5b 82 00 50 	sw (sp+80),r2
 2001f8c:	78 05 02 00 	mvhi r5,0x200
 2001f90:	78 02 02 00 	mvhi r2,0x200
 2001f94:	5b 85 00 64 	sw (sp+100),r5
 2001f98:	5b 82 00 48 	sw (sp+72),r2
 2001f9c:	78 05 02 00 	mvhi r5,0x200
 2001fa0:	2b 82 00 68 	lw r2,(sp+104)
 2001fa4:	5b 85 00 5c 	sw (sp+92),r5
 2001fa8:	78 05 02 00 	mvhi r5,0x200
 2001fac:	5b 85 00 54 	sw (sp+84),r5
 2001fb0:	78 05 02 00 	mvhi r5,0x200
 2001fb4:	5b 85 00 4c 	sw (sp+76),r5
 2001fb8:	38 42 a2 cc 	ori r2,r2,0xa2cc
 2001fbc:	37 85 06 50 	addi r5,sp,1616
 2001fc0:	5b 85 06 b8 	sw (sp+1720),r5
 2001fc4:	5b 82 00 68 	sw (sp+104),r2
 2001fc8:	2b 85 00 64 	lw r5,(sp+100)
 2001fcc:	2b 82 00 60 	lw r2,(sp+96)
 2001fd0:	34 01 00 00 	mvi r1,0
 2001fd4:	38 a5 a2 88 	ori r5,r5,0xa288
 2001fd8:	38 42 a2 c4 	ori r2,r2,0xa2c4
 2001fdc:	5b 85 00 64 	sw (sp+100),r5
 2001fe0:	5b 82 00 60 	sw (sp+96),r2
 2001fe4:	2b 85 00 5c 	lw r5,(sp+92)
 2001fe8:	2b 82 00 58 	lw r2,(sp+88)
 2001fec:	5b 81 00 74 	sw (sp+116),r1
 2001ff0:	38 a5 a2 b8 	ori r5,r5,0xa2b8
 2001ff4:	38 42 00 00 	ori r2,r2,0x0
 2001ff8:	5b 85 00 5c 	sw (sp+92),r5
 2001ffc:	5b 82 00 58 	sw (sp+88),r2
 2002000:	2b 85 00 54 	lw r5,(sp+84)
 2002004:	2b 82 00 50 	lw r2,(sp+80)
 2002008:	5b 81 00 8c 	sw (sp+140),r1
 200200c:	38 a5 a2 84 	ori r5,r5,0xa284
 2002010:	38 42 a2 70 	ori r2,r2,0xa270
 2002014:	5b 85 00 54 	sw (sp+84),r5
 2002018:	5b 82 00 50 	sw (sp+80),r2
 200201c:	2b 85 00 4c 	lw r5,(sp+76)
 2002020:	2b 82 00 48 	lw r2,(sp+72)
 2002024:	78 14 02 00 	mvhi r20,0x200
 2002028:	38 a5 a4 40 	ori r5,r5,0xa440
 200202c:	38 42 a2 c0 	ori r2,r2,0xa2c0
 2002030:	5b 81 06 c0 	sw (sp+1728),r1
 2002034:	5b 81 06 bc 	sw (sp+1724),r1
 2002038:	5b 85 00 4c 	sw (sp+76),r5
 200203c:	5b 82 00 48 	sw (sp+72),r2
 2002040:	5b 81 00 90 	sw (sp+144),r1
 2002044:	5b 81 00 80 	sw (sp+128),r1
 2002048:	b9 60 88 00 	mv r17,r11
 200204c:	3a 94 a4 30 	ori r20,r20,0xa430
 2002050:	37 8d 06 50 	addi r13,sp,1616
 2002054:	5b 81 00 88 	sw (sp+136),r1
 2002058:	42 23 00 00 	lbu r3,(r17+0)
 200205c:	7c 61 00 00 	cmpnei r1,r3,0
 2002060:	7c 62 00 25 	cmpnei r2,r3,37
 2002064:	a0 22 08 00 	and r1,r1,r2
 2002068:	44 20 00 1a 	be r1,r0,20020d0 <_vfprintf_r+0x204>
 200206c:	ba 20 58 00 	mv r11,r17
 2002070:	35 6b 00 01 	addi r11,r11,1
 2002074:	41 63 00 00 	lbu r3,(r11+0)
 2002078:	7c 62 00 00 	cmpnei r2,r3,0
 200207c:	7c 61 00 25 	cmpnei r1,r3,37
 2002080:	a0 41 10 00 	and r2,r2,r1
 2002084:	5c 40 ff fb 	bne r2,r0,2002070 <_vfprintf_r+0x1a4>
 2002088:	c9 71 60 00 	sub r12,r11,r17
 200208c:	45 82 00 27 	be r12,r2,2002128 <_vfprintf_r+0x25c>
 2002090:	59 ac 00 04 	sw (r13+4),r12
 2002094:	2b 81 06 c0 	lw r1,(sp+1728)
 2002098:	2b 82 06 bc 	lw r2,(sp+1724)
 200209c:	59 b1 00 00 	sw (r13+0),r17
 20020a0:	b4 2c 08 00 	add r1,r1,r12
 20020a4:	34 42 00 01 	addi r2,r2,1
 20020a8:	5b 81 06 c0 	sw (sp+1728),r1
 20020ac:	5b 82 06 bc 	sw (sp+1724),r2
 20020b0:	34 01 00 07 	mvi r1,7
 20020b4:	48 41 02 3e 	bg r2,r1,20029ac <_vfprintf_r+0xae0>
 20020b8:	35 ad 00 08 	addi r13,r13,8
 20020bc:	2b 81 00 74 	lw r1,(sp+116)
 20020c0:	41 63 00 00 	lbu r3,(r11+0)
 20020c4:	b9 60 88 00 	mv r17,r11
 20020c8:	b4 2c 08 00 	add r1,r1,r12
 20020cc:	5b 81 00 74 	sw (sp+116),r1
 20020d0:	34 01 00 00 	mvi r1,0
 20020d4:	44 61 05 5c 	be r3,r1,2003644 <_vfprintf_r+0x1778>
 20020d8:	2b 8c 00 6c 	lw r12,(sp+108)
 20020dc:	b8 20 c0 00 	mv r24,r1
 20020e0:	36 31 00 01 	addi r17,r17,1
 20020e4:	33 81 06 ef 	sb (sp+1775),r1
 20020e8:	42 21 00 00 	lbu r1,(r17+0)
 20020ec:	34 12 ff ff 	mvi r18,-1
 20020f0:	5b 98 00 78 	sw (sp+120),r24
 20020f4:	34 06 00 58 	mvi r6,88
 20020f8:	34 05 00 09 	mvi r5,9
 20020fc:	34 07 00 2a 	mvi r7,42
 2002100:	34 08 00 6c 	mvi r8,108
 2002104:	b8 20 98 00 	mv r19,r1
 2002108:	36 31 00 01 	addi r17,r17,1
 200210c:	36 61 ff e0 	addi r1,r19,-32
 2002110:	54 26 01 13 	bgu r1,r6,200255c <_vfprintf_r+0x690>
 2002114:	2b 82 00 68 	lw r2,(sp+104)
 2002118:	3c 21 00 02 	sli r1,r1,2
 200211c:	b4 41 08 00 	add r1,r2,r1
 2002120:	28 22 00 00 	lw r2,(r1+0)
 2002124:	c0 40 00 00 	b r2
 2002128:	b9 60 88 00 	mv r17,r11
 200212c:	e3 ff ff e9 	bi 20020d0 <_vfprintf_r+0x204>
 2002130:	3b 18 00 10 	ori r24,r24,0x10
 2002134:	23 02 00 10 	andi r2,r24,0x10
 2002138:	44 40 02 9d 	be r2,r0,2002bac <_vfprintf_r+0xce0>
 200213c:	29 8b 00 00 	lw r11,(r12+0)
 2002140:	35 96 00 04 	addi r22,r12,4
 2002144:	34 04 00 01 	mvi r4,1
 2002148:	34 01 00 00 	mvi r1,0
 200214c:	33 81 06 ef 	sb (sp+1775),r1
 2002150:	48 12 01 8f 	bg r0,r18,200278c <_vfprintf_r+0x8c0>
 2002154:	7d 61 00 00 	cmpnei r1,r11,0
 2002158:	7e 42 00 00 	cmpnei r2,r18,0
 200215c:	34 03 ff 7f 	mvi r3,-129
 2002160:	b8 22 08 00 	or r1,r1,r2
 2002164:	a3 03 c0 00 	and r24,r24,r3
 2002168:	37 8e 05 f4 	addi r14,sp,1524
 200216c:	5c 20 01 89 	bne r1,r0,2002790 <_vfprintf_r+0x8c4>
 2002170:	5c 81 00 03 	bne r4,r1,200217c <_vfprintf_r+0x2b0>
 2002174:	23 01 00 01 	andi r1,r24,0x1
 2002178:	5c 24 02 88 	bne r1,r4,2002b98 <_vfprintf_r+0xccc>
 200217c:	b9 c0 a8 00 	mv r21,r14
 2002180:	34 10 00 00 	mvi r16,0
 2002184:	ba 00 d8 00 	mv fp,r16
 2002188:	4e 12 00 02 	bge r16,r18,2002190 <_vfprintf_r+0x2c4>
 200218c:	ba 40 d8 00 	mv fp,r18
 2002190:	34 01 00 00 	mvi r1,0
 2002194:	ba c0 60 00 	mv r12,r22
 2002198:	5b 81 00 94 	sw (sp+148),r1
 200219c:	ba 40 b0 00 	mv r22,r18
 20021a0:	43 81 06 ef 	lbu r1,(sp+1775)
 20021a4:	44 20 00 f7 	be r1,r0,2002580 <_vfprintf_r+0x6b4>
 20021a8:	37 7b 00 01 	addi fp,fp,1
 20021ac:	5b 8c 00 6c 	sw (sp+108),r12
 20021b0:	23 0f 00 84 	andi r15,r24,0x84
 20021b4:	5d e0 00 22 	bne r15,r0,200223c <_vfprintf_r+0x370>
 20021b8:	2b 82 00 78 	lw r2,(sp+120)
 20021bc:	c8 5b 58 00 	sub r11,r2,fp
 20021c0:	4d eb 00 1f 	bge r15,r11,200223c <_vfprintf_r+0x370>
 20021c4:	34 01 00 10 	mvi r1,16
 20021c8:	4c 2b 05 2a 	bge r1,r11,2003670 <_vfprintf_r+0x17a4>
 20021cc:	2b 97 00 4c 	lw r23,(sp+76)
 20021d0:	b8 20 60 00 	mv r12,r1
 20021d4:	34 0e 00 07 	mvi r14,7
 20021d8:	37 92 06 b8 	addi r18,sp,1720
 20021dc:	59 ac 00 04 	sw (r13+4),r12
 20021e0:	2b 82 06 c0 	lw r2,(sp+1728)
 20021e4:	2b 81 06 bc 	lw r1,(sp+1724)
 20021e8:	2b 85 00 4c 	lw r5,(sp+76)
 20021ec:	34 42 00 10 	addi r2,r2,16
 20021f0:	34 21 00 01 	addi r1,r1,1
 20021f4:	59 a5 00 00 	sw (r13+0),r5
 20021f8:	5b 82 06 c0 	sw (sp+1728),r2
 20021fc:	5b 81 06 bc 	sw (sp+1724),r1
 2002200:	48 2e 00 cb 	bg r1,r14,200252c <_vfprintf_r+0x660>
 2002204:	35 ad 00 08 	addi r13,r13,8
 2002208:	35 6b ff f0 	addi r11,r11,-16
 200220c:	49 6c ff f4 	bg r11,r12,20021dc <_vfprintf_r+0x310>
 2002210:	59 ab 00 04 	sw (r13+4),r11
 2002214:	2b 81 06 c0 	lw r1,(sp+1728)
 2002218:	2b 82 06 bc 	lw r2,(sp+1724)
 200221c:	59 b7 00 00 	sw (r13+0),r23
 2002220:	b4 2b 08 00 	add r1,r1,r11
 2002224:	34 42 00 01 	addi r2,r2,1
 2002228:	5b 81 06 c0 	sw (sp+1728),r1
 200222c:	5b 82 06 bc 	sw (sp+1724),r2
 2002230:	34 01 00 07 	mvi r1,7
 2002234:	48 41 03 87 	bg r2,r1,2003050 <_vfprintf_r+0x1184>
 2002238:	35 ad 00 08 	addi r13,r13,8
 200223c:	43 82 06 ef 	lbu r2,(sp+1775)
 2002240:	44 40 00 d6 	be r2,r0,2002598 <_vfprintf_r+0x6cc>
 2002244:	34 01 00 01 	mvi r1,1
 2002248:	59 a1 00 04 	sw (r13+4),r1
 200224c:	2b 83 06 c0 	lw r3,(sp+1728)
 2002250:	2b 82 06 bc 	lw r2,(sp+1724)
 2002254:	b4 61 18 00 	add r3,r3,r1
 2002258:	b4 41 10 00 	add r2,r2,r1
 200225c:	37 81 06 ef 	addi r1,sp,1775
 2002260:	59 a1 00 00 	sw (r13+0),r1
 2002264:	5b 83 06 c0 	sw (sp+1728),r3
 2002268:	5b 82 06 bc 	sw (sp+1724),r2
 200226c:	34 01 00 07 	mvi r1,7
 2002270:	48 41 00 68 	bg r2,r1,2002410 <_vfprintf_r+0x544>
 2002274:	35 ad 00 08 	addi r13,r13,8
 2002278:	34 01 00 80 	mvi r1,128
 200227c:	45 e1 00 6c 	be r15,r1,200242c <_vfprintf_r+0x560>
 2002280:	ca d0 58 00 	sub r11,r22,r16
 2002284:	4c 0b 00 1e 	bge r0,r11,20022fc <_vfprintf_r+0x430>
 2002288:	34 01 00 10 	mvi r1,16
 200228c:	4c 2b 04 4b 	bge r1,r11,20033b8 <_vfprintf_r+0x14ec>
 2002290:	b8 20 60 00 	mv r12,r1
 2002294:	ba 80 90 00 	mv r18,r20
 2002298:	34 0e 00 07 	mvi r14,7
 200229c:	37 8f 06 b8 	addi r15,sp,1720
 20022a0:	59 ac 00 04 	sw (r13+4),r12
 20022a4:	2b 82 06 c0 	lw r2,(sp+1728)
 20022a8:	2b 81 06 bc 	lw r1,(sp+1724)
 20022ac:	59 b4 00 00 	sw (r13+0),r20
 20022b0:	34 42 00 10 	addi r2,r2,16
 20022b4:	34 21 00 01 	addi r1,r1,1
 20022b8:	5b 82 06 c0 	sw (sp+1728),r2
 20022bc:	5b 81 06 bc 	sw (sp+1724),r1
 20022c0:	48 2e 00 95 	bg r1,r14,2002514 <_vfprintf_r+0x648>
 20022c4:	35 ad 00 08 	addi r13,r13,8
 20022c8:	35 6b ff f0 	addi r11,r11,-16
 20022cc:	49 6c ff f5 	bg r11,r12,20022a0 <_vfprintf_r+0x3d4>
 20022d0:	59 ab 00 04 	sw (r13+4),r11
 20022d4:	2b 81 06 c0 	lw r1,(sp+1728)
 20022d8:	2b 82 06 bc 	lw r2,(sp+1724)
 20022dc:	59 b2 00 00 	sw (r13+0),r18
 20022e0:	b4 2b 08 00 	add r1,r1,r11
 20022e4:	34 42 00 01 	addi r2,r2,1
 20022e8:	5b 81 06 c0 	sw (sp+1728),r1
 20022ec:	5b 82 06 bc 	sw (sp+1724),r2
 20022f0:	34 01 00 07 	mvi r1,7
 20022f4:	48 41 01 d9 	bg r2,r1,2002a58 <_vfprintf_r+0xb8c>
 20022f8:	35 ad 00 08 	addi r13,r13,8
 20022fc:	23 01 01 00 	andi r1,r24,0x100
 2002300:	5c 20 00 da 	bne r1,r0,2002668 <_vfprintf_r+0x79c>
 2002304:	59 b0 00 04 	sw (r13+4),r16
 2002308:	2b 85 06 c0 	lw r5,(sp+1728)
 200230c:	2b 82 06 bc 	lw r2,(sp+1724)
 2002310:	59 b5 00 00 	sw (r13+0),r21
 2002314:	b4 b0 08 00 	add r1,r5,r16
 2002318:	34 42 00 01 	addi r2,r2,1
 200231c:	5b 81 06 c0 	sw (sp+1728),r1
 2002320:	5b 82 06 bc 	sw (sp+1724),r2
 2002324:	34 01 00 07 	mvi r1,7
 2002328:	48 41 01 44 	bg r2,r1,2002838 <_vfprintf_r+0x96c>
 200232c:	35 a4 00 08 	addi r4,r13,8
 2002330:	23 01 00 04 	andi r1,r24,0x4
 2002334:	44 20 00 25 	be r1,r0,20023c8 <_vfprintf_r+0x4fc>
 2002338:	2b 82 00 78 	lw r2,(sp+120)
 200233c:	c8 5b 58 00 	sub r11,r2,fp
 2002340:	4c 0b 00 22 	bge r0,r11,20023c8 <_vfprintf_r+0x4fc>
 2002344:	34 01 00 10 	mvi r1,16
 2002348:	4c 2b 04 d4 	bge r1,r11,2003698 <_vfprintf_r+0x17cc>
 200234c:	2b 97 00 4c 	lw r23,(sp+76)
 2002350:	b8 20 60 00 	mv r12,r1
 2002354:	34 0d 00 07 	mvi r13,7
 2002358:	37 8e 06 b8 	addi r14,sp,1720
 200235c:	58 8c 00 04 	sw (r4+4),r12
 2002360:	2b 82 06 c0 	lw r2,(sp+1728)
 2002364:	2b 81 06 bc 	lw r1,(sp+1724)
 2002368:	2b 85 00 4c 	lw r5,(sp+76)
 200236c:	34 42 00 10 	addi r2,r2,16
 2002370:	34 21 00 01 	addi r1,r1,1
 2002374:	58 85 00 00 	sw (r4+0),r5
 2002378:	5b 82 06 c0 	sw (sp+1728),r2
 200237c:	5b 81 06 bc 	sw (sp+1724),r1
 2002380:	48 2d 00 71 	bg r1,r13,2002544 <_vfprintf_r+0x678>
 2002384:	34 84 00 08 	addi r4,r4,8
 2002388:	35 6b ff f0 	addi r11,r11,-16
 200238c:	49 6c ff f4 	bg r11,r12,200235c <_vfprintf_r+0x490>
 2002390:	58 8b 00 04 	sw (r4+4),r11
 2002394:	2b 85 06 c0 	lw r5,(sp+1728)
 2002398:	2b 81 06 bc 	lw r1,(sp+1724)
 200239c:	58 97 00 00 	sw (r4+0),r23
 20023a0:	b4 ab 28 00 	add r5,r5,r11
 20023a4:	34 21 00 01 	addi r1,r1,1
 20023a8:	5b 85 06 c0 	sw (sp+1728),r5
 20023ac:	5b 81 06 bc 	sw (sp+1724),r1
 20023b0:	34 02 00 07 	mvi r2,7
 20023b4:	4c 41 00 06 	bge r2,r1,20023cc <_vfprintf_r+0x500>
 20023b8:	bb 20 08 00 	mv r1,r25
 20023bc:	37 82 06 b8 	addi r2,sp,1720
 20023c0:	fb ff fe ac 	calli 2001e70 <__sprint>
 20023c4:	5c 20 00 8b 	bne r1,r0,20025f0 <_vfprintf_r+0x724>
 20023c8:	2b 85 06 c0 	lw r5,(sp+1728)
 20023cc:	2b 81 00 78 	lw r1,(sp+120)
 20023d0:	4c 3b 00 02 	bge r1,fp,20023d8 <_vfprintf_r+0x50c>
 20023d4:	bb 60 08 00 	mv r1,fp
 20023d8:	2b 82 00 74 	lw r2,(sp+116)
 20023dc:	b4 41 10 00 	add r2,r2,r1
 20023e0:	5b 82 00 74 	sw (sp+116),r2
 20023e4:	5c a0 00 7f 	bne r5,r0,20025e0 <_vfprintf_r+0x714>
 20023e8:	2b 85 00 94 	lw r5,(sp+148)
 20023ec:	34 01 00 00 	mvi r1,0
 20023f0:	5b 81 06 bc 	sw (sp+1724),r1
 20023f4:	37 8d 06 50 	addi r13,sp,1616
 20023f8:	44 a1 ff 18 	be r5,r1,2002058 <_vfprintf_r+0x18c>
 20023fc:	2b 81 00 70 	lw r1,(sp+112)
 2002400:	b8 a0 10 00 	mv r2,r5
 2002404:	37 8d 06 50 	addi r13,sp,1616
 2002408:	f8 00 0d cd 	calli 2005b3c <_free_r>
 200240c:	e3 ff ff 13 	bi 2002058 <_vfprintf_r+0x18c>
 2002410:	bb 20 08 00 	mv r1,r25
 2002414:	37 82 06 b8 	addi r2,sp,1720
 2002418:	fb ff fe 96 	calli 2001e70 <__sprint>
 200241c:	5c 20 00 75 	bne r1,r0,20025f0 <_vfprintf_r+0x724>
 2002420:	34 01 00 80 	mvi r1,128
 2002424:	37 8d 06 50 	addi r13,sp,1616
 2002428:	5d e1 ff 96 	bne r15,r1,2002280 <_vfprintf_r+0x3b4>
 200242c:	2b 82 00 78 	lw r2,(sp+120)
 2002430:	c8 5b 58 00 	sub r11,r2,fp
 2002434:	4c 0b ff 93 	bge r0,r11,2002280 <_vfprintf_r+0x3b4>
 2002438:	34 01 00 10 	mvi r1,16
 200243c:	4c 2b 04 b6 	bge r1,r11,2003714 <_vfprintf_r+0x1848>
 2002440:	b8 20 60 00 	mv r12,r1
 2002444:	ba 80 90 00 	mv r18,r20
 2002448:	34 0e 00 07 	mvi r14,7
 200244c:	37 8f 06 b8 	addi r15,sp,1720
 2002450:	59 ac 00 04 	sw (r13+4),r12
 2002454:	2b 82 06 c0 	lw r2,(sp+1728)
 2002458:	2b 81 06 bc 	lw r1,(sp+1724)
 200245c:	59 b4 00 00 	sw (r13+0),r20
 2002460:	34 42 00 10 	addi r2,r2,16
 2002464:	34 21 00 01 	addi r1,r1,1
 2002468:	5b 82 06 c0 	sw (sp+1728),r2
 200246c:	5b 81 06 bc 	sw (sp+1724),r1
 2002470:	48 2e 00 ec 	bg r1,r14,2002820 <_vfprintf_r+0x954>
 2002474:	35 ad 00 08 	addi r13,r13,8
 2002478:	35 6b ff f0 	addi r11,r11,-16
 200247c:	49 6c ff f5 	bg r11,r12,2002450 <_vfprintf_r+0x584>
 2002480:	59 ab 00 04 	sw (r13+4),r11
 2002484:	2b 81 06 c0 	lw r1,(sp+1728)
 2002488:	2b 82 06 bc 	lw r2,(sp+1724)
 200248c:	59 b2 00 00 	sw (r13+0),r18
 2002490:	b4 2b 08 00 	add r1,r1,r11
 2002494:	34 42 00 01 	addi r2,r2,1
 2002498:	5b 81 06 c0 	sw (sp+1728),r1
 200249c:	5b 82 06 bc 	sw (sp+1724),r2
 20024a0:	34 01 00 07 	mvi r1,7
 20024a4:	48 41 03 36 	bg r2,r1,200317c <_vfprintf_r+0x12b0>
 20024a8:	35 ad 00 08 	addi r13,r13,8
 20024ac:	e3 ff ff 75 	bi 2002280 <_vfprintf_r+0x3b4>
 20024b0:	3b 18 00 10 	ori r24,r24,0x10
 20024b4:	23 02 00 10 	andi r2,r24,0x10
 20024b8:	5c 40 01 c4 	bne r2,r0,2002bc8 <_vfprintf_r+0xcfc>
 20024bc:	23 01 00 40 	andi r1,r24,0x40
 20024c0:	44 22 03 49 	be r1,r2,20031e4 <_vfprintf_r+0x1318>
 20024c4:	29 81 00 00 	lw r1,(r12+0)
 20024c8:	b8 40 20 00 	mv r4,r2
 20024cc:	35 96 00 04 	addi r22,r12,4
 20024d0:	20 2b ff ff 	andi r11,r1,0xffff
 20024d4:	e3 ff ff 1d 	bi 2002148 <_vfprintf_r+0x27c>
 20024d8:	3b 18 00 10 	ori r24,r24,0x10
 20024dc:	23 02 00 10 	andi r2,r24,0x10
 20024e0:	5c 40 00 09 	bne r2,r0,2002504 <_vfprintf_r+0x638>
 20024e4:	23 01 00 40 	andi r1,r24,0x40
 20024e8:	44 22 00 07 	be r1,r2,2002504 <_vfprintf_r+0x638>
 20024ec:	29 81 00 00 	lw r1,(r12+0)
 20024f0:	35 96 00 04 	addi r22,r12,4
 20024f4:	dc 20 58 00 	sexth r11,r1
 20024f8:	48 0b 01 c6 	bg r0,r11,2002c10 <_vfprintf_r+0xd44>
 20024fc:	34 04 00 01 	mvi r4,1
 2002500:	e3 ff ff 14 	bi 2002150 <_vfprintf_r+0x284>
 2002504:	29 8b 00 00 	lw r11,(r12+0)
 2002508:	35 96 00 04 	addi r22,r12,4
 200250c:	48 0b 01 c1 	bg r0,r11,2002c10 <_vfprintf_r+0xd44>
 2002510:	e3 ff ff fb 	bi 20024fc <_vfprintf_r+0x630>
 2002514:	bb 20 08 00 	mv r1,r25
 2002518:	b9 e0 10 00 	mv r2,r15
 200251c:	fb ff fe 55 	calli 2001e70 <__sprint>
 2002520:	5c 20 00 34 	bne r1,r0,20025f0 <_vfprintf_r+0x724>
 2002524:	37 8d 06 50 	addi r13,sp,1616
 2002528:	e3 ff ff 68 	bi 20022c8 <_vfprintf_r+0x3fc>
 200252c:	bb 20 08 00 	mv r1,r25
 2002530:	ba 40 10 00 	mv r2,r18
 2002534:	fb ff fe 4f 	calli 2001e70 <__sprint>
 2002538:	5c 20 00 2e 	bne r1,r0,20025f0 <_vfprintf_r+0x724>
 200253c:	37 8d 06 50 	addi r13,sp,1616
 2002540:	e3 ff ff 32 	bi 2002208 <_vfprintf_r+0x33c>
 2002544:	bb 20 08 00 	mv r1,r25
 2002548:	b9 c0 10 00 	mv r2,r14
 200254c:	fb ff fe 49 	calli 2001e70 <__sprint>
 2002550:	5c 20 00 28 	bne r1,r0,20025f0 <_vfprintf_r+0x724>
 2002554:	37 84 06 50 	addi r4,sp,1616
 2002558:	e3 ff ff 8c 	bi 2002388 <_vfprintf_r+0x4bc>
 200255c:	46 60 04 3a 	be r19,r0,2003644 <_vfprintf_r+0x1778>
 2002560:	34 10 00 01 	mvi r16,1
 2002564:	34 01 00 00 	mvi r1,0
 2002568:	33 81 06 ef 	sb (sp+1775),r1
 200256c:	33 93 04 98 	sb (sp+1176),r19
 2002570:	37 95 04 98 	addi r21,sp,1176
 2002574:	ba 00 d8 00 	mv fp,r16
 2002578:	34 16 00 00 	mvi r22,0
 200257c:	5b 96 00 94 	sw (sp+148),r22
 2002580:	23 01 00 02 	andi r1,r24,0x2
 2002584:	5b 8c 00 6c 	sw (sp+108),r12
 2002588:	44 20 ff 0a 	be r1,r0,20021b0 <_vfprintf_r+0x2e4>
 200258c:	37 7b 00 02 	addi fp,fp,2
 2002590:	5b 8c 00 6c 	sw (sp+108),r12
 2002594:	e3 ff ff 07 	bi 20021b0 <_vfprintf_r+0x2e4>
 2002598:	23 01 00 02 	andi r1,r24,0x2
 200259c:	44 22 ff 37 	be r1,r2,2002278 <_vfprintf_r+0x3ac>
 20025a0:	34 01 00 30 	mvi r1,48
 20025a4:	33 81 06 ec 	sb (sp+1772),r1
 20025a8:	33 93 06 ed 	sb (sp+1773),r19
 20025ac:	34 01 00 02 	mvi r1,2
 20025b0:	59 a1 00 04 	sw (r13+4),r1
 20025b4:	37 81 06 ec 	addi r1,sp,1772
 20025b8:	2b 82 06 bc 	lw r2,(sp+1724)
 20025bc:	59 a1 00 00 	sw (r13+0),r1
 20025c0:	2b 81 06 c0 	lw r1,(sp+1728)
 20025c4:	34 42 00 01 	addi r2,r2,1
 20025c8:	5b 82 06 bc 	sw (sp+1724),r2
 20025cc:	34 21 00 02 	addi r1,r1,2
 20025d0:	5b 81 06 c0 	sw (sp+1728),r1
 20025d4:	34 01 00 07 	mvi r1,7
 20025d8:	48 41 ff 8e 	bg r2,r1,2002410 <_vfprintf_r+0x544>
 20025dc:	e3 ff ff 26 	bi 2002274 <_vfprintf_r+0x3a8>
 20025e0:	bb 20 08 00 	mv r1,r25
 20025e4:	37 82 06 b8 	addi r2,sp,1720
 20025e8:	fb ff fe 22 	calli 2001e70 <__sprint>
 20025ec:	44 20 ff 7f 	be r1,r0,20023e8 <_vfprintf_r+0x51c>
 20025f0:	2b 81 00 94 	lw r1,(sp+148)
 20025f4:	44 20 00 04 	be r1,r0,2002604 <_vfprintf_r+0x738>
 20025f8:	2b 81 00 70 	lw r1,(sp+112)
 20025fc:	2b 82 00 94 	lw r2,(sp+148)
 2002600:	f8 00 0d 4f 	calli 2005b3c <_free_r>
 2002604:	2f 21 00 0c 	lhu r1,(r25+12)
 2002608:	20 21 00 40 	andi r1,r1,0x40
 200260c:	44 20 00 03 	be r1,r0,2002618 <_vfprintf_r+0x74c>
 2002610:	34 02 ff ff 	mvi r2,-1
 2002614:	5b 82 00 74 	sw (sp+116),r2
 2002618:	2b 81 00 74 	lw r1,(sp+116)
 200261c:	2b 9d 00 04 	lw ra,(sp+4)
 2002620:	2b 8b 00 44 	lw r11,(sp+68)
 2002624:	2b 8c 00 40 	lw r12,(sp+64)
 2002628:	2b 8d 00 3c 	lw r13,(sp+60)
 200262c:	2b 8e 00 38 	lw r14,(sp+56)
 2002630:	2b 8f 00 34 	lw r15,(sp+52)
 2002634:	2b 90 00 30 	lw r16,(sp+48)
 2002638:	2b 91 00 2c 	lw r17,(sp+44)
 200263c:	2b 92 00 28 	lw r18,(sp+40)
 2002640:	2b 93 00 24 	lw r19,(sp+36)
 2002644:	2b 94 00 20 	lw r20,(sp+32)
 2002648:	2b 95 00 1c 	lw r21,(sp+28)
 200264c:	2b 96 00 18 	lw r22,(sp+24)
 2002650:	2b 97 00 14 	lw r23,(sp+20)
 2002654:	2b 98 00 10 	lw r24,(sp+16)
 2002658:	2b 99 00 0c 	lw r25,(sp+12)
 200265c:	2b 9b 00 08 	lw fp,(sp+8)
 2002660:	37 9c 06 ec 	addi sp,sp,1772
 2002664:	c3 a0 00 00 	ret
 2002668:	34 01 00 65 	mvi r1,101
 200266c:	4c 33 00 79 	bge r1,r19,2002850 <_vfprintf_r+0x984>
 2002670:	2b 81 00 8c 	lw r1,(sp+140)
 2002674:	2b 82 00 90 	lw r2,(sp+144)
 2002678:	34 03 00 00 	mvi r3,0
 200267c:	b8 60 20 00 	mv r4,r3
 2002680:	f8 00 1a b7 	calli 200915c <__eqdf2>
 2002684:	5c 20 00 fe 	bne r1,r0,2002a7c <_vfprintf_r+0xbb0>
 2002688:	34 01 00 01 	mvi r1,1
 200268c:	59 a1 00 04 	sw (r13+4),r1
 2002690:	2b 85 06 c0 	lw r5,(sp+1728)
 2002694:	2b 82 06 bc 	lw r2,(sp+1724)
 2002698:	78 01 02 00 	mvhi r1,0x200
 200269c:	38 21 a2 bc 	ori r1,r1,0xa2bc
 20026a0:	34 a3 00 01 	addi r3,r5,1
 20026a4:	34 42 00 01 	addi r2,r2,1
 20026a8:	59 a1 00 00 	sw (r13+0),r1
 20026ac:	5b 83 06 c0 	sw (sp+1728),r3
 20026b0:	5b 82 06 bc 	sw (sp+1724),r2
 20026b4:	34 01 00 07 	mvi r1,7
 20026b8:	48 41 03 3a 	bg r2,r1,20033a0 <_vfprintf_r+0x14d4>
 20026bc:	35 a4 00 08 	addi r4,r13,8
 20026c0:	2b 81 06 e8 	lw r1,(sp+1768)
 20026c4:	2b 85 00 84 	lw r5,(sp+132)
 20026c8:	48 a1 00 03 	bg r5,r1,20026d4 <_vfprintf_r+0x808>
 20026cc:	23 01 00 01 	andi r1,r24,0x1
 20026d0:	44 20 ff 18 	be r1,r0,2002330 <_vfprintf_r+0x464>
 20026d4:	34 01 00 01 	mvi r1,1
 20026d8:	58 81 00 04 	sw (r4+4),r1
 20026dc:	2b 81 00 7c 	lw r1,(sp+124)
 20026e0:	2b 85 06 c0 	lw r5,(sp+1728)
 20026e4:	58 81 00 00 	sw (r4+0),r1
 20026e8:	2b 81 06 bc 	lw r1,(sp+1724)
 20026ec:	34 a2 00 01 	addi r2,r5,1
 20026f0:	5b 82 06 c0 	sw (sp+1728),r2
 20026f4:	34 21 00 01 	addi r1,r1,1
 20026f8:	5b 81 06 bc 	sw (sp+1724),r1
 20026fc:	34 02 00 07 	mvi r2,7
 2002700:	48 22 03 d6 	bg r1,r2,2003658 <_vfprintf_r+0x178c>
 2002704:	34 84 00 08 	addi r4,r4,8
 2002708:	2b 82 00 84 	lw r2,(sp+132)
 200270c:	34 4b ff ff 	addi r11,r2,-1
 2002710:	4c 0b ff 08 	bge r0,r11,2002330 <_vfprintf_r+0x464>
 2002714:	34 01 00 10 	mvi r1,16
 2002718:	4c 2b 04 6e 	bge r1,r11,20038d0 <_vfprintf_r+0x1a04>
 200271c:	b8 20 60 00 	mv r12,r1
 2002720:	ba 80 90 00 	mv r18,r20
 2002724:	34 0d 00 07 	mvi r13,7
 2002728:	37 8e 06 b8 	addi r14,sp,1720
 200272c:	58 8c 00 04 	sw (r4+4),r12
 2002730:	2b 82 06 c0 	lw r2,(sp+1728)
 2002734:	2b 81 06 bc 	lw r1,(sp+1724)
 2002738:	58 94 00 00 	sw (r4+0),r20
 200273c:	34 42 00 10 	addi r2,r2,16
 2002740:	34 21 00 01 	addi r1,r1,1
 2002744:	5b 82 06 c0 	sw (sp+1728),r2
 2002748:	5b 81 06 bc 	sw (sp+1724),r1
 200274c:	48 2d 02 1c 	bg r1,r13,2002fbc <_vfprintf_r+0x10f0>
 2002750:	34 84 00 08 	addi r4,r4,8
 2002754:	35 6b ff f0 	addi r11,r11,-16
 2002758:	49 6c ff f5 	bg r11,r12,200272c <_vfprintf_r+0x860>
 200275c:	58 8b 00 04 	sw (r4+4),r11
 2002760:	2b 85 06 c0 	lw r5,(sp+1728)
 2002764:	58 92 00 00 	sw (r4+0),r18
 2002768:	b4 ab 08 00 	add r1,r5,r11
 200276c:	2b 82 06 bc 	lw r2,(sp+1724)
 2002770:	5b 81 06 c0 	sw (sp+1728),r1
 2002774:	34 01 00 07 	mvi r1,7
 2002778:	34 42 00 01 	addi r2,r2,1
 200277c:	5b 82 06 bc 	sw (sp+1724),r2
 2002780:	48 41 00 2e 	bg r2,r1,2002838 <_vfprintf_r+0x96c>
 2002784:	34 84 00 08 	addi r4,r4,8
 2002788:	e3 ff fe ea 	bi 2002330 <_vfprintf_r+0x464>
 200278c:	37 8e 05 f4 	addi r14,sp,1524
 2002790:	34 01 00 01 	mvi r1,1
 2002794:	44 81 02 10 	be r4,r1,2002fd4 <_vfprintf_r+0x1108>
 2002798:	b9 c0 a8 00 	mv r21,r14
 200279c:	44 80 00 11 	be r4,r0,20027e0 <_vfprintf_r+0x914>
 20027a0:	34 01 00 02 	mvi r1,2
 20027a4:	44 81 01 e9 	be r4,r1,2002f48 <_vfprintf_r+0x107c>
 20027a8:	78 01 02 00 	mvhi r1,0x200
 20027ac:	38 21 a2 9c 	ori r1,r1,0xa29c
 20027b0:	fb ff fd 92 	calli 2001df8 <strlen>
 20027b4:	b8 20 80 00 	mv r16,r1
 20027b8:	b8 20 d8 00 	mv fp,r1
 20027bc:	4c 32 00 02 	bge r1,r18,20027c4 <_vfprintf_r+0x8f8>
 20027c0:	ba 40 d8 00 	mv fp,r18
 20027c4:	78 15 02 00 	mvhi r21,0x200
 20027c8:	34 05 00 00 	mvi r5,0
 20027cc:	ba c0 60 00 	mv r12,r22
 20027d0:	3a b5 a2 9c 	ori r21,r21,0xa29c
 20027d4:	ba 40 b0 00 	mv r22,r18
 20027d8:	5b 85 00 94 	sw (sp+148),r5
 20027dc:	e3 ff fe 71 	bi 20021a0 <_vfprintf_r+0x2d4>
 20027e0:	21 61 00 07 	andi r1,r11,0x7
 20027e4:	36 b5 ff ff 	addi r21,r21,-1
 20027e8:	34 22 00 30 	addi r2,r1,48
 20027ec:	01 6b 00 03 	srui r11,r11,3
 20027f0:	32 a2 00 00 	sb (r21+0),r2
 20027f4:	5d 60 ff fb 	bne r11,r0,20027e0 <_vfprintf_r+0x914>
 20027f8:	23 01 00 01 	andi r1,r24,0x1
 20027fc:	c9 d5 80 00 	sub r16,r14,r21
 2002800:	44 2b fe 61 	be r1,r11,2002184 <_vfprintf_r+0x2b8>
 2002804:	34 01 00 30 	mvi r1,48
 2002808:	c9 d5 80 00 	sub r16,r14,r21
 200280c:	44 41 fe 5e 	be r2,r1,2002184 <_vfprintf_r+0x2b8>
 2002810:	36 b5 ff ff 	addi r21,r21,-1
 2002814:	32 a1 00 00 	sb (r21+0),r1
 2002818:	c9 d5 80 00 	sub r16,r14,r21
 200281c:	e3 ff fe 5a 	bi 2002184 <_vfprintf_r+0x2b8>
 2002820:	bb 20 08 00 	mv r1,r25
 2002824:	b9 e0 10 00 	mv r2,r15
 2002828:	fb ff fd 92 	calli 2001e70 <__sprint>
 200282c:	5c 20 ff 71 	bne r1,r0,20025f0 <_vfprintf_r+0x724>
 2002830:	37 8d 06 50 	addi r13,sp,1616
 2002834:	e3 ff ff 11 	bi 2002478 <_vfprintf_r+0x5ac>
 2002838:	bb 20 08 00 	mv r1,r25
 200283c:	37 82 06 b8 	addi r2,sp,1720
 2002840:	fb ff fd 8c 	calli 2001e70 <__sprint>
 2002844:	5c 20 ff 6b 	bne r1,r0,20025f0 <_vfprintf_r+0x724>
 2002848:	37 84 06 50 	addi r4,sp,1616
 200284c:	e3 ff fe b9 	bi 2002330 <_vfprintf_r+0x464>
 2002850:	2b 85 00 84 	lw r5,(sp+132)
 2002854:	34 02 00 01 	mvi r2,1
 2002858:	48 a2 00 0f 	bg r5,r2,2002894 <_vfprintf_r+0x9c8>
 200285c:	a3 02 08 00 	and r1,r24,r2
 2002860:	5c 20 00 0d 	bne r1,r0,2002894 <_vfprintf_r+0x9c8>
 2002864:	59 a2 00 04 	sw (r13+4),r2
 2002868:	2b 81 06 c0 	lw r1,(sp+1728)
 200286c:	2b 82 06 bc 	lw r2,(sp+1724)
 2002870:	59 b5 00 00 	sw (r13+0),r21
 2002874:	34 21 00 01 	addi r1,r1,1
 2002878:	34 42 00 01 	addi r2,r2,1
 200287c:	5b 81 06 c0 	sw (sp+1728),r1
 2002880:	5b 82 06 bc 	sw (sp+1724),r2
 2002884:	34 01 00 07 	mvi r1,7
 2002888:	48 41 01 bb 	bg r2,r1,2002f74 <_vfprintf_r+0x10a8>
 200288c:	35 ac 00 08 	addi r12,r13,8
 2002890:	e0 00 00 38 	bi 2002970 <_vfprintf_r+0xaa4>
 2002894:	42 a1 00 00 	lbu r1,(r21+0)
 2002898:	34 02 00 02 	mvi r2,2
 200289c:	33 81 06 ec 	sb (sp+1772),r1
 20028a0:	34 01 00 2e 	mvi r1,46
 20028a4:	33 81 06 ed 	sb (sp+1773),r1
 20028a8:	59 a2 00 04 	sw (r13+4),r2
 20028ac:	37 82 06 ec 	addi r2,sp,1772
 20028b0:	2b 81 06 c0 	lw r1,(sp+1728)
 20028b4:	59 a2 00 00 	sw (r13+0),r2
 20028b8:	2b 82 06 bc 	lw r2,(sp+1724)
 20028bc:	34 21 00 02 	addi r1,r1,2
 20028c0:	5b 81 06 c0 	sw (sp+1728),r1
 20028c4:	34 42 00 01 	addi r2,r2,1
 20028c8:	5b 82 06 bc 	sw (sp+1724),r2
 20028cc:	34 01 00 07 	mvi r1,7
 20028d0:	48 41 02 25 	bg r2,r1,2003164 <_vfprintf_r+0x1298>
 20028d4:	35 ac 00 08 	addi r12,r13,8
 20028d8:	2b 81 00 8c 	lw r1,(sp+140)
 20028dc:	2b 82 00 90 	lw r2,(sp+144)
 20028e0:	34 03 00 00 	mvi r3,0
 20028e4:	b8 60 20 00 	mv r4,r3
 20028e8:	f8 00 1a 40 	calli 20091e8 <__nedf2>
 20028ec:	5c 20 00 bb 	bne r1,r0,2002bd8 <_vfprintf_r+0xd0c>
 20028f0:	2b 82 00 84 	lw r2,(sp+132)
 20028f4:	34 4b ff ff 	addi r11,r2,-1
 20028f8:	4c 2b 00 1e 	bge r1,r11,2002970 <_vfprintf_r+0xaa4>
 20028fc:	34 01 00 10 	mvi r1,16
 2002900:	4c 2b 03 f6 	bge r1,r11,20038d8 <_vfprintf_r+0x1a0c>
 2002904:	b8 20 68 00 	mv r13,r1
 2002908:	ba 80 90 00 	mv r18,r20
 200290c:	34 0e 00 07 	mvi r14,7
 2002910:	37 8f 06 b8 	addi r15,sp,1720
 2002914:	59 8d 00 04 	sw (r12+4),r13
 2002918:	2b 82 06 c0 	lw r2,(sp+1728)
 200291c:	2b 81 06 bc 	lw r1,(sp+1724)
 2002920:	59 94 00 00 	sw (r12+0),r20
 2002924:	34 42 00 10 	addi r2,r2,16
 2002928:	34 21 00 01 	addi r1,r1,1
 200292c:	5b 82 06 c0 	sw (sp+1728),r2
 2002930:	5b 81 06 bc 	sw (sp+1724),r1
 2002934:	48 2e 01 9c 	bg r1,r14,2002fa4 <_vfprintf_r+0x10d8>
 2002938:	35 8c 00 08 	addi r12,r12,8
 200293c:	35 6b ff f0 	addi r11,r11,-16
 2002940:	49 6d ff f5 	bg r11,r13,2002914 <_vfprintf_r+0xa48>
 2002944:	59 8b 00 04 	sw (r12+4),r11
 2002948:	2b 81 06 c0 	lw r1,(sp+1728)
 200294c:	2b 82 06 bc 	lw r2,(sp+1724)
 2002950:	59 92 00 00 	sw (r12+0),r18
 2002954:	b4 2b 08 00 	add r1,r1,r11
 2002958:	34 42 00 01 	addi r2,r2,1
 200295c:	5b 81 06 c0 	sw (sp+1728),r1
 2002960:	5b 82 06 bc 	sw (sp+1724),r2
 2002964:	34 01 00 07 	mvi r1,7
 2002968:	48 41 01 83 	bg r2,r1,2002f74 <_vfprintf_r+0x10a8>
 200296c:	35 8c 00 08 	addi r12,r12,8
 2002970:	2b 85 00 80 	lw r5,(sp+128)
 2002974:	2b 81 00 80 	lw r1,(sp+128)
 2002978:	59 85 00 04 	sw (r12+4),r5
 200297c:	2b 85 06 c0 	lw r5,(sp+1728)
 2002980:	2b 82 06 bc 	lw r2,(sp+1724)
 2002984:	b4 a1 18 00 	add r3,r5,r1
 2002988:	34 42 00 01 	addi r2,r2,1
 200298c:	37 81 06 d4 	addi r1,sp,1748
 2002990:	59 81 00 00 	sw (r12+0),r1
 2002994:	5b 83 06 c0 	sw (sp+1728),r3
 2002998:	5b 82 06 bc 	sw (sp+1724),r2
 200299c:	34 01 00 07 	mvi r1,7
 20029a0:	48 41 ff a6 	bg r2,r1,2002838 <_vfprintf_r+0x96c>
 20029a4:	35 84 00 08 	addi r4,r12,8
 20029a8:	e3 ff fe 62 	bi 2002330 <_vfprintf_r+0x464>
 20029ac:	bb 20 08 00 	mv r1,r25
 20029b0:	37 82 06 b8 	addi r2,sp,1720
 20029b4:	fb ff fd 2f 	calli 2001e70 <__sprint>
 20029b8:	5c 20 ff 13 	bne r1,r0,2002604 <_vfprintf_r+0x738>
 20029bc:	37 8d 06 50 	addi r13,sp,1616
 20029c0:	e3 ff fd bf 	bi 20020bc <_vfprintf_r+0x1f0>
 20029c4:	1f 21 00 0e 	lh r1,(r25+14)
 20029c8:	2f 28 00 0e 	lhu r8,(r25+14)
 20029cc:	48 01 fd 68 	bg r0,r1,2001f6c <_vfprintf_r+0xa0>
 20029d0:	34 05 ff fd 	mvi r5,-3
 20029d4:	a0 65 28 00 	and r5,r3,r5
 20029d8:	0f 85 06 00 	sh (sp+1536),r5
 20029dc:	34 05 00 00 	mvi r5,0
 20029e0:	5b 85 06 0c 	sw (sp+1548),r5
 20029e4:	2b 25 00 1c 	lw r5,(r25+28)
 20029e8:	2b 81 00 70 	lw r1,(sp+112)
 20029ec:	2b 84 00 6c 	lw r4,(sp+108)
 20029f0:	5b 85 06 10 	sw (sp+1552),r5
 20029f4:	2b 25 00 24 	lw r5,(r25+36)
 20029f8:	37 8c 05 f4 	addi r12,sp,1524
 20029fc:	37 86 00 98 	addi r6,sp,152
 2002a00:	34 07 04 00 	mvi r7,1024
 2002a04:	b9 60 18 00 	mv r3,r11
 2002a08:	b9 80 10 00 	mv r2,r12
 2002a0c:	0f 88 06 02 	sh (sp+1538),r8
 2002a10:	5b 86 06 04 	sw (sp+1540),r6
 2002a14:	5b 87 06 08 	sw (sp+1544),r7
 2002a18:	5b 85 06 18 	sw (sp+1560),r5
 2002a1c:	5b 86 05 f4 	sw (sp+1524),r6
 2002a20:	5b 87 05 fc 	sw (sp+1532),r7
 2002a24:	fb ff fd 2a 	calli 2001ecc <_vfprintf_r>
 2002a28:	5b 81 00 74 	sw (sp+116),r1
 2002a2c:	48 01 00 04 	bg r0,r1,2002a3c <_vfprintf_r+0xb70>
 2002a30:	b9 80 08 00 	mv r1,r12
 2002a34:	f8 00 0b 65 	calli 20057c8 <fflush>
 2002a38:	5c 20 03 aa 	bne r1,r0,20038e0 <_vfprintf_r+0x1a14>
 2002a3c:	2f 81 06 00 	lhu r1,(sp+1536)
 2002a40:	20 21 00 40 	andi r1,r1,0x40
 2002a44:	44 20 fe f5 	be r1,r0,2002618 <_vfprintf_r+0x74c>
 2002a48:	2f 21 00 0c 	lhu r1,(r25+12)
 2002a4c:	38 21 00 40 	ori r1,r1,0x40
 2002a50:	0f 21 00 0c 	sh (r25+12),r1
 2002a54:	e3 ff fe f1 	bi 2002618 <_vfprintf_r+0x74c>
 2002a58:	bb 20 08 00 	mv r1,r25
 2002a5c:	37 82 06 b8 	addi r2,sp,1720
 2002a60:	fb ff fd 04 	calli 2001e70 <__sprint>
 2002a64:	5c 20 fe e3 	bne r1,r0,20025f0 <_vfprintf_r+0x724>
 2002a68:	37 8d 06 50 	addi r13,sp,1616
 2002a6c:	e3 ff fe 24 	bi 20022fc <_vfprintf_r+0x430>
 2002a70:	b8 40 08 00 	mv r1,r2
 2002a74:	f8 00 0b 96 	calli 20058cc <__sinit>
 2002a78:	e3 ff fd 34 	bi 2001f48 <_vfprintf_r+0x7c>
 2002a7c:	2b 82 06 e8 	lw r2,(sp+1768)
 2002a80:	48 40 01 7a 	bg r2,r0,2003068 <_vfprintf_r+0x119c>
 2002a84:	34 01 00 01 	mvi r1,1
 2002a88:	59 a1 00 04 	sw (r13+4),r1
 2002a8c:	2b 85 06 c0 	lw r5,(sp+1728)
 2002a90:	2b 82 06 bc 	lw r2,(sp+1724)
 2002a94:	78 01 02 00 	mvhi r1,0x200
 2002a98:	38 21 a2 bc 	ori r1,r1,0xa2bc
 2002a9c:	34 a3 00 01 	addi r3,r5,1
 2002aa0:	34 42 00 01 	addi r2,r2,1
 2002aa4:	59 a1 00 00 	sw (r13+0),r1
 2002aa8:	5b 83 06 c0 	sw (sp+1728),r3
 2002aac:	5b 82 06 bc 	sw (sp+1724),r2
 2002ab0:	34 01 00 07 	mvi r1,7
 2002ab4:	48 41 02 cc 	bg r2,r1,20035e4 <_vfprintf_r+0x1718>
 2002ab8:	35 a4 00 08 	addi r4,r13,8
 2002abc:	2b 81 06 e8 	lw r1,(sp+1768)
 2002ac0:	5c 20 00 03 	bne r1,r0,2002acc <_vfprintf_r+0xc00>
 2002ac4:	2b 85 00 84 	lw r5,(sp+132)
 2002ac8:	44 a1 fe 1a 	be r5,r1,2002330 <_vfprintf_r+0x464>
 2002acc:	34 01 00 01 	mvi r1,1
 2002ad0:	58 81 00 04 	sw (r4+4),r1
 2002ad4:	2b 81 00 7c 	lw r1,(sp+124)
 2002ad8:	2b 82 06 bc 	lw r2,(sp+1724)
 2002adc:	58 81 00 00 	sw (r4+0),r1
 2002ae0:	2b 81 06 c0 	lw r1,(sp+1728)
 2002ae4:	34 42 00 01 	addi r2,r2,1
 2002ae8:	5b 82 06 bc 	sw (sp+1724),r2
 2002aec:	34 21 00 01 	addi r1,r1,1
 2002af0:	5b 81 06 c0 	sw (sp+1728),r1
 2002af4:	34 01 00 07 	mvi r1,7
 2002af8:	48 41 03 2c 	bg r2,r1,20037a8 <_vfprintf_r+0x18dc>
 2002afc:	34 84 00 08 	addi r4,r4,8
 2002b00:	2b 81 06 e8 	lw r1,(sp+1768)
 2002b04:	c8 01 58 00 	sub r11,r0,r1
 2002b08:	4c 0b 00 1e 	bge r0,r11,2002b80 <_vfprintf_r+0xcb4>
 2002b0c:	34 01 00 10 	mvi r1,16
 2002b10:	4c 2b 03 8b 	bge r1,r11,200393c <_vfprintf_r+0x1a70>
 2002b14:	b8 20 60 00 	mv r12,r1
 2002b18:	ba 80 90 00 	mv r18,r20
 2002b1c:	34 0d 00 07 	mvi r13,7
 2002b20:	37 8e 06 b8 	addi r14,sp,1720
 2002b24:	58 8c 00 04 	sw (r4+4),r12
 2002b28:	2b 82 06 c0 	lw r2,(sp+1728)
 2002b2c:	2b 81 06 bc 	lw r1,(sp+1724)
 2002b30:	58 94 00 00 	sw (r4+0),r20
 2002b34:	34 42 00 10 	addi r2,r2,16
 2002b38:	34 21 00 01 	addi r1,r1,1
 2002b3c:	5b 82 06 c0 	sw (sp+1728),r2
 2002b40:	5b 81 06 bc 	sw (sp+1724),r1
 2002b44:	48 2d 02 ba 	bg r1,r13,200362c <_vfprintf_r+0x1760>
 2002b48:	34 84 00 08 	addi r4,r4,8
 2002b4c:	35 6b ff f0 	addi r11,r11,-16
 2002b50:	49 6c ff f5 	bg r11,r12,2002b24 <_vfprintf_r+0xc58>
 2002b54:	58 8b 00 04 	sw (r4+4),r11
 2002b58:	2b 81 06 c0 	lw r1,(sp+1728)
 2002b5c:	2b 82 06 bc 	lw r2,(sp+1724)
 2002b60:	58 92 00 00 	sw (r4+0),r18
 2002b64:	b4 2b 08 00 	add r1,r1,r11
 2002b68:	34 42 00 01 	addi r2,r2,1
 2002b6c:	5b 81 06 c0 	sw (sp+1728),r1
 2002b70:	5b 82 06 bc 	sw (sp+1724),r2
 2002b74:	34 01 00 07 	mvi r1,7
 2002b78:	48 41 03 28 	bg r2,r1,2003818 <_vfprintf_r+0x194c>
 2002b7c:	34 84 00 08 	addi r4,r4,8
 2002b80:	2b 82 00 84 	lw r2,(sp+132)
 2002b84:	58 95 00 00 	sw (r4+0),r21
 2002b88:	58 82 00 04 	sw (r4+4),r2
 2002b8c:	2b 85 06 c0 	lw r5,(sp+1728)
 2002b90:	b4 a2 08 00 	add r1,r5,r2
 2002b94:	e3 ff fe f6 	bi 200276c <_vfprintf_r+0x8a0>
 2002b98:	34 01 00 30 	mvi r1,48
 2002b9c:	33 81 05 f3 	sb (sp+1523),r1
 2002ba0:	37 95 05 f3 	addi r21,sp,1523
 2002ba4:	34 10 00 01 	mvi r16,1
 2002ba8:	e3 ff fd 77 	bi 2002184 <_vfprintf_r+0x2b8>
 2002bac:	23 01 00 40 	andi r1,r24,0x40
 2002bb0:	44 22 fd 63 	be r1,r2,200213c <_vfprintf_r+0x270>
 2002bb4:	29 81 00 00 	lw r1,(r12+0)
 2002bb8:	35 96 00 04 	addi r22,r12,4
 2002bbc:	34 04 00 01 	mvi r4,1
 2002bc0:	20 2b ff ff 	andi r11,r1,0xffff
 2002bc4:	e3 ff fd 61 	bi 2002148 <_vfprintf_r+0x27c>
 2002bc8:	29 8b 00 00 	lw r11,(r12+0)
 2002bcc:	35 96 00 04 	addi r22,r12,4
 2002bd0:	34 04 00 00 	mvi r4,0
 2002bd4:	e3 ff fd 5d 	bi 2002148 <_vfprintf_r+0x27c>
 2002bd8:	2b 85 00 84 	lw r5,(sp+132)
 2002bdc:	36 a4 00 01 	addi r4,r21,1
 2002be0:	59 84 00 00 	sw (r12+0),r4
 2002be4:	34 a3 ff ff 	addi r3,r5,-1
 2002be8:	59 83 00 04 	sw (r12+4),r3
 2002bec:	2b 81 06 c0 	lw r1,(sp+1728)
 2002bf0:	2b 82 06 bc 	lw r2,(sp+1724)
 2002bf4:	b4 23 08 00 	add r1,r1,r3
 2002bf8:	34 42 00 01 	addi r2,r2,1
 2002bfc:	5b 81 06 c0 	sw (sp+1728),r1
 2002c00:	5b 82 06 bc 	sw (sp+1724),r2
 2002c04:	34 01 00 07 	mvi r1,7
 2002c08:	48 41 00 db 	bg r2,r1,2002f74 <_vfprintf_r+0x10a8>
 2002c0c:	e3 ff ff 58 	bi 200296c <_vfprintf_r+0xaa0>
 2002c10:	34 01 00 2d 	mvi r1,45
 2002c14:	33 81 06 ef 	sb (sp+1775),r1
 2002c18:	c8 0b 58 00 	sub r11,r0,r11
 2002c1c:	34 04 00 01 	mvi r4,1
 2002c20:	e3 ff fd 4c 	bi 2002150 <_vfprintf_r+0x284>
 2002c24:	b9 80 10 00 	mv r2,r12
 2002c28:	3b 18 00 10 	ori r24,r24,0x10
 2002c2c:	42 21 00 00 	lbu r1,(r17+0)
 2002c30:	b8 40 60 00 	mv r12,r2
 2002c34:	e3 ff fd 34 	bi 2002104 <_vfprintf_r+0x238>
 2002c38:	34 01 ff ff 	mvi r1,-1
 2002c3c:	46 41 01 e7 	be r18,r1,20033d8 <_vfprintf_r+0x150c>
 2002c40:	66 61 00 67 	cmpei r1,r19,103
 2002c44:	66 62 00 47 	cmpei r2,r19,71
 2002c48:	b8 22 08 00 	or r1,r1,r2
 2002c4c:	44 20 00 02 	be r1,r0,2002c54 <_vfprintf_r+0xd88>
 2002c50:	46 40 02 4a 	be r18,r0,2003578 <_vfprintf_r+0x16ac>
 2002c54:	23 01 00 08 	andi r1,r24,0x8
 2002c58:	44 20 01 a0 	be r1,r0,20032d8 <_vfprintf_r+0x140c>
 2002c5c:	29 82 00 00 	lw r2,(r12+0)
 2002c60:	35 85 00 08 	addi r5,r12,8
 2002c64:	5b 85 00 6c 	sw (sp+108),r5
 2002c68:	5b 82 00 8c 	sw (sp+140),r2
 2002c6c:	29 8c 00 04 	lw r12,(r12+4)
 2002c70:	5b 8c 00 90 	sw (sp+144),r12
 2002c74:	2b 81 00 8c 	lw r1,(sp+140)
 2002c78:	2b 82 00 90 	lw r2,(sp+144)
 2002c7c:	f8 00 14 c5 	calli 2007f90 <isinf>
 2002c80:	b8 20 58 00 	mv r11,r1
 2002c84:	44 20 01 d7 	be r1,r0,20033e0 <_vfprintf_r+0x1514>
 2002c88:	2b 81 00 8c 	lw r1,(sp+140)
 2002c8c:	2b 82 00 90 	lw r2,(sp+144)
 2002c90:	34 03 00 00 	mvi r3,0
 2002c94:	b8 60 20 00 	mv r4,r3
 2002c98:	f8 00 19 b5 	calli 200936c <__ltdf2>
 2002c9c:	48 01 02 77 	bg r0,r1,2003678 <_vfprintf_r+0x17ac>
 2002ca0:	34 16 00 00 	mvi r22,0
 2002ca4:	34 10 00 03 	mvi r16,3
 2002ca8:	2b 8c 00 6c 	lw r12,(sp+108)
 2002cac:	2b 95 00 54 	lw r21,(sp+84)
 2002cb0:	5b 96 00 94 	sw (sp+148),r22
 2002cb4:	ba 00 d8 00 	mv fp,r16
 2002cb8:	e3 ff fd 3a 	bi 20021a0 <_vfprintf_r+0x2d4>
 2002cbc:	b9 80 10 00 	mv r2,r12
 2002cc0:	3b 18 00 08 	ori r24,r24,0x8
 2002cc4:	42 21 00 00 	lbu r1,(r17+0)
 2002cc8:	b8 40 60 00 	mv r12,r2
 2002ccc:	e3 ff fd 0e 	bi 2002104 <_vfprintf_r+0x238>
 2002cd0:	34 01 00 00 	mvi r1,0
 2002cd4:	33 81 06 ef 	sb (sp+1775),r1
 2002cd8:	29 95 00 00 	lw r21,(r12+0)
 2002cdc:	35 8c 00 04 	addi r12,r12,4
 2002ce0:	46 a1 02 70 	be r21,r1,20036a0 <_vfprintf_r+0x17d4>
 2002ce4:	34 01 00 53 	mvi r1,83
 2002ce8:	46 61 01 43 	be r19,r1,20031f4 <_vfprintf_r+0x1328>
 2002cec:	23 0b 00 10 	andi r11,r24,0x10
 2002cf0:	5d 60 01 41 	bne r11,r0,20031f4 <_vfprintf_r+0x1328>
 2002cf4:	49 72 02 42 	bg r11,r18,20035fc <_vfprintf_r+0x1730>
 2002cf8:	ba a0 08 00 	mv r1,r21
 2002cfc:	b9 60 10 00 	mv r2,r11
 2002d00:	ba 40 18 00 	mv r3,r18
 2002d04:	f8 00 0f 8d 	calli 2006b38 <memchr>
 2002d08:	44 20 02 ee 	be r1,r0,20038c0 <_vfprintf_r+0x19f4>
 2002d0c:	c8 35 80 00 	sub r16,r1,r21
 2002d10:	4a 12 02 83 	bg r16,r18,200371c <_vfprintf_r+0x1850>
 2002d14:	ba 00 d8 00 	mv fp,r16
 2002d18:	4e 00 00 02 	bge r16,r0,2002d20 <_vfprintf_r+0xe54>
 2002d1c:	b9 60 d8 00 	mv fp,r11
 2002d20:	34 16 00 00 	mvi r22,0
 2002d24:	5b 96 00 94 	sw (sp+148),r22
 2002d28:	e3 ff fd 1e 	bi 20021a0 <_vfprintf_r+0x2d4>
 2002d2c:	2b 85 00 50 	lw r5,(sp+80)
 2002d30:	23 02 00 10 	andi r2,r24,0x10
 2002d34:	5b 85 00 88 	sw (sp+136),r5
 2002d38:	5c 40 00 44 	bne r2,r0,2002e48 <_vfprintf_r+0xf7c>
 2002d3c:	23 01 00 40 	andi r1,r24,0x40
 2002d40:	44 22 00 42 	be r1,r2,2002e48 <_vfprintf_r+0xf7c>
 2002d44:	29 81 00 00 	lw r1,(r12+0)
 2002d48:	35 96 00 04 	addi r22,r12,4
 2002d4c:	20 2b ff ff 	andi r11,r1,0xffff
 2002d50:	7d 61 00 00 	cmpnei r1,r11,0
 2002d54:	34 04 00 02 	mvi r4,2
 2002d58:	a3 01 08 00 	and r1,r24,r1
 2002d5c:	44 20 fc fb 	be r1,r0,2002148 <_vfprintf_r+0x27c>
 2002d60:	3b 18 00 02 	ori r24,r24,0x2
 2002d64:	34 04 00 02 	mvi r4,2
 2002d68:	e3 ff fc f8 	bi 2002148 <_vfprintf_r+0x27c>
 2002d6c:	42 33 00 00 	lbu r19,(r17+0)
 2002d70:	36 31 00 01 	addi r17,r17,1
 2002d74:	46 67 02 eb 	be r19,r7,2003920 <_vfprintf_r+0x1a54>
 2002d78:	36 64 ff d0 	addi r4,r19,-48
 2002d7c:	34 03 00 00 	mvi r3,0
 2002d80:	50 a4 00 03 	bgeu r5,r4,2002d8c <_vfprintf_r+0xec0>
 2002d84:	b8 60 90 00 	mv r18,r3
 2002d88:	e3 ff fc e1 	bi 200210c <_vfprintf_r+0x240>
 2002d8c:	3c 62 00 03 	sli r2,r3,3
 2002d90:	42 33 00 00 	lbu r19,(r17+0)
 2002d94:	b4 63 08 00 	add r1,r3,r3
 2002d98:	b4 22 08 00 	add r1,r1,r2
 2002d9c:	b4 24 18 00 	add r3,r1,r4
 2002da0:	36 64 ff d0 	addi r4,r19,-48
 2002da4:	36 31 00 01 	addi r17,r17,1
 2002da8:	50 a4 ff f9 	bgeu r5,r4,2002d8c <_vfprintf_r+0xec0>
 2002dac:	b8 60 90 00 	mv r18,r3
 2002db0:	4c 60 fc d7 	bge r3,r0,200210c <_vfprintf_r+0x240>
 2002db4:	34 12 ff ff 	mvi r18,-1
 2002db8:	e3 ff fc d5 	bi 200210c <_vfprintf_r+0x240>
 2002dbc:	b9 80 10 00 	mv r2,r12
 2002dc0:	3b 18 00 01 	ori r24,r24,0x1
 2002dc4:	42 21 00 00 	lbu r1,(r17+0)
 2002dc8:	b8 40 60 00 	mv r12,r2
 2002dcc:	e3 ff fc ce 	bi 2002104 <_vfprintf_r+0x238>
 2002dd0:	29 81 00 00 	lw r1,(r12+0)
 2002dd4:	35 82 00 04 	addi r2,r12,4
 2002dd8:	5b 81 00 78 	sw (sp+120),r1
 2002ddc:	48 01 01 e3 	bg r0,r1,2003568 <_vfprintf_r+0x169c>
 2002de0:	42 21 00 00 	lbu r1,(r17+0)
 2002de4:	b8 40 60 00 	mv r12,r2
 2002de8:	e3 ff fc c7 	bi 2002104 <_vfprintf_r+0x238>
 2002dec:	34 01 00 2b 	mvi r1,43
 2002df0:	33 81 06 ef 	sb (sp+1775),r1
 2002df4:	b9 80 10 00 	mv r2,r12
 2002df8:	42 21 00 00 	lbu r1,(r17+0)
 2002dfc:	b8 40 60 00 	mv r12,r2
 2002e00:	e3 ff fc c1 	bi 2002104 <_vfprintf_r+0x238>
 2002e04:	b9 80 10 00 	mv r2,r12
 2002e08:	3b 18 00 04 	ori r24,r24,0x4
 2002e0c:	42 21 00 00 	lbu r1,(r17+0)
 2002e10:	b8 40 60 00 	mv r12,r2
 2002e14:	e3 ff fc bc 	bi 2002104 <_vfprintf_r+0x238>
 2002e18:	43 81 06 ef 	lbu r1,(sp+1775)
 2002e1c:	5c 20 00 ee 	bne r1,r0,20031d4 <_vfprintf_r+0x1308>
 2002e20:	34 01 00 20 	mvi r1,32
 2002e24:	33 81 06 ef 	sb (sp+1775),r1
 2002e28:	b9 80 10 00 	mv r2,r12
 2002e2c:	42 21 00 00 	lbu r1,(r17+0)
 2002e30:	b8 40 60 00 	mv r12,r2
 2002e34:	e3 ff fc b4 	bi 2002104 <_vfprintf_r+0x238>
 2002e38:	2b 85 00 64 	lw r5,(sp+100)
 2002e3c:	23 02 00 10 	andi r2,r24,0x10
 2002e40:	5b 85 00 88 	sw (sp+136),r5
 2002e44:	44 40 ff be 	be r2,r0,2002d3c <_vfprintf_r+0xe70>
 2002e48:	29 8b 00 00 	lw r11,(r12+0)
 2002e4c:	35 96 00 04 	addi r22,r12,4
 2002e50:	e3 ff ff c0 	bi 2002d50 <_vfprintf_r+0xe84>
 2002e54:	23 02 00 10 	andi r2,r24,0x10
 2002e58:	5c 40 00 4d 	bne r2,r0,2002f8c <_vfprintf_r+0x10c0>
 2002e5c:	23 01 00 40 	andi r1,r24,0x40
 2002e60:	44 22 00 4b 	be r1,r2,2002f8c <_vfprintf_r+0x10c0>
 2002e64:	29 81 00 00 	lw r1,(r12+0)
 2002e68:	2f 82 00 76 	lhu r2,(sp+118)
 2002e6c:	35 8c 00 04 	addi r12,r12,4
 2002e70:	5b 8c 00 6c 	sw (sp+108),r12
 2002e74:	0c 22 00 00 	sh (r1+0),r2
 2002e78:	e3 ff fc 78 	bi 2002058 <_vfprintf_r+0x18c>
 2002e7c:	3b 18 00 40 	ori r24,r24,0x40
 2002e80:	b9 80 10 00 	mv r2,r12
 2002e84:	42 21 00 00 	lbu r1,(r17+0)
 2002e88:	e3 ff ff d7 	bi 2002de4 <_vfprintf_r+0xf18>
 2002e8c:	36 64 ff d0 	addi r4,r19,-48
 2002e90:	34 01 00 00 	mvi r1,0
 2002e94:	3c 22 00 03 	sli r2,r1,3
 2002e98:	42 33 00 00 	lbu r19,(r17+0)
 2002e9c:	b4 21 08 00 	add r1,r1,r1
 2002ea0:	b4 22 08 00 	add r1,r1,r2
 2002ea4:	b4 81 08 00 	add r1,r4,r1
 2002ea8:	36 64 ff d0 	addi r4,r19,-48
 2002eac:	36 31 00 01 	addi r17,r17,1
 2002eb0:	50 a4 ff f9 	bgeu r5,r4,2002e94 <_vfprintf_r+0xfc8>
 2002eb4:	5b 81 00 78 	sw (sp+120),r1
 2002eb8:	e3 ff fc 95 	bi 200210c <_vfprintf_r+0x240>
 2002ebc:	34 01 00 43 	mvi r1,67
 2002ec0:	46 61 00 b5 	be r19,r1,2003194 <_vfprintf_r+0x12c8>
 2002ec4:	23 01 00 10 	andi r1,r24,0x10
 2002ec8:	5c 20 00 b3 	bne r1,r0,2003194 <_vfprintf_r+0x12c8>
 2002ecc:	29 81 00 00 	lw r1,(r12+0)
 2002ed0:	34 10 00 01 	mvi r16,1
 2002ed4:	35 8c 00 04 	addi r12,r12,4
 2002ed8:	33 81 04 98 	sb (sp+1176),r1
 2002edc:	37 8e 04 98 	addi r14,sp,1176
 2002ee0:	34 01 00 00 	mvi r1,0
 2002ee4:	33 81 06 ef 	sb (sp+1775),r1
 2002ee8:	ba 00 d8 00 	mv fp,r16
 2002eec:	4e 01 00 02 	bge r16,r1,2002ef4 <_vfprintf_r+0x1028>
 2002ef0:	b8 20 d8 00 	mv fp,r1
 2002ef4:	b9 c0 a8 00 	mv r21,r14
 2002ef8:	e3 ff fd a0 	bi 2002578 <_vfprintf_r+0x6ac>
 2002efc:	b9 80 10 00 	mv r2,r12
 2002f00:	3b 18 00 80 	ori r24,r24,0x80
 2002f04:	42 21 00 00 	lbu r1,(r17+0)
 2002f08:	b8 40 60 00 	mv r12,r2
 2002f0c:	e3 ff fc 7e 	bi 2002104 <_vfprintf_r+0x238>
 2002f10:	42 21 00 00 	lbu r1,(r17+0)
 2002f14:	44 28 01 2b 	be r1,r8,20033c0 <_vfprintf_r+0x14f4>
 2002f18:	b9 80 10 00 	mv r2,r12
 2002f1c:	3b 18 00 10 	ori r24,r24,0x10
 2002f20:	b8 40 60 00 	mv r12,r2
 2002f24:	e3 ff fc 78 	bi 2002104 <_vfprintf_r+0x238>
 2002f28:	2b 81 00 64 	lw r1,(sp+100)
 2002f2c:	29 8b 00 00 	lw r11,(r12+0)
 2002f30:	3b 18 00 02 	ori r24,r24,0x2
 2002f34:	35 96 00 04 	addi r22,r12,4
 2002f38:	34 13 00 78 	mvi r19,120
 2002f3c:	34 04 00 02 	mvi r4,2
 2002f40:	5b 81 00 88 	sw (sp+136),r1
 2002f44:	e3 ff fc 81 	bi 2002148 <_vfprintf_r+0x27c>
 2002f48:	b9 c0 a8 00 	mv r21,r14
 2002f4c:	2b 82 00 88 	lw r2,(sp+136)
 2002f50:	21 61 00 0f 	andi r1,r11,0xf
 2002f54:	36 b5 ff ff 	addi r21,r21,-1
 2002f58:	b4 41 08 00 	add r1,r2,r1
 2002f5c:	40 21 00 00 	lbu r1,(r1+0)
 2002f60:	01 6b 00 04 	srui r11,r11,4
 2002f64:	32 a1 00 00 	sb (r21+0),r1
 2002f68:	5d 60 ff f9 	bne r11,r0,2002f4c <_vfprintf_r+0x1080>
 2002f6c:	c9 d5 80 00 	sub r16,r14,r21
 2002f70:	e3 ff fc 85 	bi 2002184 <_vfprintf_r+0x2b8>
 2002f74:	bb 20 08 00 	mv r1,r25
 2002f78:	37 82 06 b8 	addi r2,sp,1720
 2002f7c:	fb ff fb bd 	calli 2001e70 <__sprint>
 2002f80:	5c 20 fd 9c 	bne r1,r0,20025f0 <_vfprintf_r+0x724>
 2002f84:	37 8c 06 50 	addi r12,sp,1616
 2002f88:	e3 ff fe 7a 	bi 2002970 <_vfprintf_r+0xaa4>
 2002f8c:	29 81 00 00 	lw r1,(r12+0)
 2002f90:	2b 85 00 74 	lw r5,(sp+116)
 2002f94:	35 8c 00 04 	addi r12,r12,4
 2002f98:	5b 8c 00 6c 	sw (sp+108),r12
 2002f9c:	58 25 00 00 	sw (r1+0),r5
 2002fa0:	e3 ff fc 2e 	bi 2002058 <_vfprintf_r+0x18c>
 2002fa4:	bb 20 08 00 	mv r1,r25
 2002fa8:	b9 e0 10 00 	mv r2,r15
 2002fac:	fb ff fb b1 	calli 2001e70 <__sprint>
 2002fb0:	5c 20 fd 90 	bne r1,r0,20025f0 <_vfprintf_r+0x724>
 2002fb4:	37 8c 06 50 	addi r12,sp,1616
 2002fb8:	e3 ff fe 61 	bi 200293c <_vfprintf_r+0xa70>
 2002fbc:	bb 20 08 00 	mv r1,r25
 2002fc0:	b9 c0 10 00 	mv r2,r14
 2002fc4:	fb ff fb ab 	calli 2001e70 <__sprint>
 2002fc8:	5c 20 fd 8a 	bne r1,r0,20025f0 <_vfprintf_r+0x724>
 2002fcc:	37 84 06 50 	addi r4,sp,1616
 2002fd0:	e3 ff fd e1 	bi 2002754 <_vfprintf_r+0x888>
 2002fd4:	34 01 00 09 	mvi r1,9
 2002fd8:	b9 c0 60 00 	mv r12,r14
 2002fdc:	b8 20 78 00 	mv r15,r1
 2002fe0:	55 61 00 06 	bgu r11,r1,2002ff8 <_vfprintf_r+0x112c>
 2002fe4:	35 61 00 30 	addi r1,r11,48
 2002fe8:	35 95 ff ff 	addi r21,r12,-1
 2002fec:	31 81 ff ff 	sb (r12+-1),r1
 2002ff0:	c9 d5 80 00 	sub r16,r14,r21
 2002ff4:	e3 ff fc 64 	bi 2002184 <_vfprintf_r+0x2b8>
 2002ff8:	b9 60 08 00 	mv r1,r11
 2002ffc:	34 02 00 0a 	mvi r2,10
 2003000:	f8 00 1a 16 	calli 2009858 <__umodsi3>
 2003004:	34 21 00 30 	addi r1,r1,48
 2003008:	35 8c ff ff 	addi r12,r12,-1
 200300c:	31 81 00 00 	sb (r12+0),r1
 2003010:	34 02 00 0a 	mvi r2,10
 2003014:	b9 60 08 00 	mv r1,r11
 2003018:	f8 00 19 fc 	calli 2009808 <__udivsi3>
 200301c:	b8 20 58 00 	mv r11,r1
 2003020:	54 2f ff f6 	bgu r1,r15,2002ff8 <_vfprintf_r+0x112c>
 2003024:	35 61 00 30 	addi r1,r11,48
 2003028:	35 95 ff ff 	addi r21,r12,-1
 200302c:	31 81 ff ff 	sb (r12+-1),r1
 2003030:	c9 d5 80 00 	sub r16,r14,r21
 2003034:	e3 ff fc 54 	bi 2002184 <_vfprintf_r+0x2b8>
 2003038:	bb 20 08 00 	mv r1,r25
 200303c:	f8 00 03 f9 	calli 2004020 <__swsetup>
 2003040:	5c 20 fd 74 	bne r1,r0,2002610 <_vfprintf_r+0x744>
 2003044:	1f 23 00 0c 	lh r3,(r25+12)
 2003048:	20 62 ff ff 	andi r2,r3,0xffff
 200304c:	e3 ff fb c5 	bi 2001f60 <_vfprintf_r+0x94>
 2003050:	bb 20 08 00 	mv r1,r25
 2003054:	37 82 06 b8 	addi r2,sp,1720
 2003058:	fb ff fb 86 	calli 2001e70 <__sprint>
 200305c:	5c 20 fd 65 	bne r1,r0,20025f0 <_vfprintf_r+0x724>
 2003060:	37 8d 06 50 	addi r13,sp,1616
 2003064:	e3 ff fc 76 	bi 200223c <_vfprintf_r+0x370>
 2003068:	2b 85 00 84 	lw r5,(sp+132)
 200306c:	48 a2 00 a2 	bg r5,r2,20032f4 <_vfprintf_r+0x1428>
 2003070:	59 a5 00 04 	sw (r13+4),r5
 2003074:	2b 85 06 c0 	lw r5,(sp+1728)
 2003078:	2b 82 00 84 	lw r2,(sp+132)
 200307c:	59 b5 00 00 	sw (r13+0),r21
 2003080:	b4 a2 08 00 	add r1,r5,r2
 2003084:	2b 82 06 bc 	lw r2,(sp+1724)
 2003088:	5b 81 06 c0 	sw (sp+1728),r1
 200308c:	34 01 00 07 	mvi r1,7
 2003090:	34 42 00 01 	addi r2,r2,1
 2003094:	5b 82 06 bc 	sw (sp+1724),r2
 2003098:	48 41 01 4d 	bg r2,r1,20035cc <_vfprintf_r+0x1700>
 200309c:	35 a4 00 08 	addi r4,r13,8
 20030a0:	2b 81 06 e8 	lw r1,(sp+1768)
 20030a4:	2b 85 00 84 	lw r5,(sp+132)
 20030a8:	c8 25 58 00 	sub r11,r1,r5
 20030ac:	4c 0b 00 1e 	bge r0,r11,2003124 <_vfprintf_r+0x1258>
 20030b0:	34 01 00 10 	mvi r1,16
 20030b4:	4c 2b 02 20 	bge r1,r11,2003934 <_vfprintf_r+0x1a68>
 20030b8:	b8 20 60 00 	mv r12,r1
 20030bc:	ba 80 90 00 	mv r18,r20
 20030c0:	34 0d 00 07 	mvi r13,7
 20030c4:	37 8e 06 b8 	addi r14,sp,1720
 20030c8:	58 8c 00 04 	sw (r4+4),r12
 20030cc:	2b 82 06 c0 	lw r2,(sp+1728)
 20030d0:	2b 81 06 bc 	lw r1,(sp+1724)
 20030d4:	58 94 00 00 	sw (r4+0),r20
 20030d8:	34 42 00 10 	addi r2,r2,16
 20030dc:	34 21 00 01 	addi r1,r1,1
 20030e0:	5b 82 06 c0 	sw (sp+1728),r2
 20030e4:	5b 81 06 bc 	sw (sp+1724),r1
 20030e8:	48 2d 01 4b 	bg r1,r13,2003614 <_vfprintf_r+0x1748>
 20030ec:	34 84 00 08 	addi r4,r4,8
 20030f0:	35 6b ff f0 	addi r11,r11,-16
 20030f4:	49 6c ff f5 	bg r11,r12,20030c8 <_vfprintf_r+0x11fc>
 20030f8:	58 8b 00 04 	sw (r4+4),r11
 20030fc:	2b 85 06 c0 	lw r5,(sp+1728)
 2003100:	2b 82 06 bc 	lw r2,(sp+1724)
 2003104:	58 92 00 00 	sw (r4+0),r18
 2003108:	b4 ab 08 00 	add r1,r5,r11
 200310c:	34 42 00 01 	addi r2,r2,1
 2003110:	5b 81 06 c0 	sw (sp+1728),r1
 2003114:	5b 82 06 bc 	sw (sp+1724),r2
 2003118:	34 01 00 07 	mvi r1,7
 200311c:	48 41 01 b9 	bg r2,r1,2003800 <_vfprintf_r+0x1934>
 2003120:	34 84 00 08 	addi r4,r4,8
 2003124:	23 01 00 01 	andi r1,r24,0x1
 2003128:	44 20 fc 82 	be r1,r0,2002330 <_vfprintf_r+0x464>
 200312c:	34 01 00 01 	mvi r1,1
 2003130:	58 81 00 04 	sw (r4+4),r1
 2003134:	2b 81 00 48 	lw r1,(sp+72)
 2003138:	2b 85 06 c0 	lw r5,(sp+1728)
 200313c:	58 81 00 00 	sw (r4+0),r1
 2003140:	2b 81 06 bc 	lw r1,(sp+1724)
 2003144:	34 a2 00 01 	addi r2,r5,1
 2003148:	5b 82 06 c0 	sw (sp+1728),r2
 200314c:	34 21 00 01 	addi r1,r1,1
 2003150:	5b 81 06 bc 	sw (sp+1724),r1
 2003154:	34 02 00 07 	mvi r2,7
 2003158:	48 22 fd b8 	bg r1,r2,2002838 <_vfprintf_r+0x96c>
 200315c:	34 84 00 08 	addi r4,r4,8
 2003160:	e3 ff fc 74 	bi 2002330 <_vfprintf_r+0x464>
 2003164:	bb 20 08 00 	mv r1,r25
 2003168:	37 82 06 b8 	addi r2,sp,1720
 200316c:	fb ff fb 41 	calli 2001e70 <__sprint>
 2003170:	5c 20 fd 20 	bne r1,r0,20025f0 <_vfprintf_r+0x724>
 2003174:	37 8c 06 50 	addi r12,sp,1616
 2003178:	e3 ff fd d8 	bi 20028d8 <_vfprintf_r+0xa0c>
 200317c:	bb 20 08 00 	mv r1,r25
 2003180:	37 82 06 b8 	addi r2,sp,1720
 2003184:	fb ff fb 3b 	calli 2001e70 <__sprint>
 2003188:	5c 20 fd 1a 	bne r1,r0,20025f0 <_vfprintf_r+0x724>
 200318c:	37 8d 06 50 	addi r13,sp,1616
 2003190:	e3 ff fc 3c 	bi 2002280 <_vfprintf_r+0x3b4>
 2003194:	37 8b 06 cc 	addi r11,sp,1740
 2003198:	34 02 00 00 	mvi r2,0
 200319c:	34 03 00 08 	mvi r3,8
 20031a0:	b9 60 08 00 	mv r1,r11
 20031a4:	f8 00 0e ea 	calli 2006d4c <memset>
 20031a8:	29 83 00 00 	lw r3,(r12+0)
 20031ac:	2b 81 00 70 	lw r1,(sp+112)
 20031b0:	37 8e 04 98 	addi r14,sp,1176
 20031b4:	b9 60 20 00 	mv r4,r11
 20031b8:	b9 c0 10 00 	mv r2,r14
 20031bc:	f8 00 01 f0 	calli 200397c <_wcrtomb_r>
 20031c0:	b8 20 80 00 	mv r16,r1
 20031c4:	34 01 ff ff 	mvi r1,-1
 20031c8:	46 01 01 81 	be r16,r1,20037cc <_vfprintf_r+0x1900>
 20031cc:	35 8c 00 04 	addi r12,r12,4
 20031d0:	e3 ff ff 44 	bi 2002ee0 <_vfprintf_r+0x1014>
 20031d4:	b9 80 10 00 	mv r2,r12
 20031d8:	42 21 00 00 	lbu r1,(r17+0)
 20031dc:	b8 40 60 00 	mv r12,r2
 20031e0:	e3 ff fb c9 	bi 2002104 <_vfprintf_r+0x238>
 20031e4:	29 8b 00 00 	lw r11,(r12+0)
 20031e8:	b8 20 20 00 	mv r4,r1
 20031ec:	35 96 00 04 	addi r22,r12,4
 20031f0:	e3 ff fb d6 	bi 2002148 <_vfprintf_r+0x27c>
 20031f4:	37 8f 06 c4 	addi r15,sp,1732
 20031f8:	b9 e0 08 00 	mv r1,r15
 20031fc:	34 02 00 00 	mvi r2,0
 2003200:	34 03 00 08 	mvi r3,8
 2003204:	5b 95 06 e4 	sw (sp+1764),r21
 2003208:	f8 00 0e d1 	calli 2006d4c <memset>
 200320c:	48 12 01 5c 	bg r0,r18,200377c <_vfprintf_r+0x18b0>
 2003210:	34 10 00 00 	mvi r16,0
 2003214:	ba 00 58 00 	mv r11,r16
 2003218:	37 96 04 98 	addi r22,sp,1176
 200321c:	34 0e ff ff 	mvi r14,-1
 2003220:	e0 00 00 02 	bi 2003228 <_vfprintf_r+0x135c>
 2003224:	b8 20 80 00 	mv r16,r1
 2003228:	2b 81 06 e4 	lw r1,(sp+1764)
 200322c:	b4 2b 08 00 	add r1,r1,r11
 2003230:	28 23 00 00 	lw r3,(r1+0)
 2003234:	44 60 00 0b 	be r3,r0,2003260 <_vfprintf_r+0x1394>
 2003238:	2b 81 00 70 	lw r1,(sp+112)
 200323c:	ba c0 10 00 	mv r2,r22
 2003240:	b9 e0 20 00 	mv r4,r15
 2003244:	f8 00 01 ce 	calli 200397c <_wcrtomb_r>
 2003248:	44 2e 01 61 	be r1,r14,20037cc <_vfprintf_r+0x1900>
 200324c:	b4 30 08 00 	add r1,r1,r16
 2003250:	48 32 00 04 	bg r1,r18,2003260 <_vfprintf_r+0x1394>
 2003254:	35 6b 00 04 	addi r11,r11,4
 2003258:	5e 41 ff f3 	bne r18,r1,2003224 <_vfprintf_r+0x1358>
 200325c:	ba 40 80 00 	mv r16,r18
 2003260:	34 0b 00 00 	mvi r11,0
 2003264:	5b 90 00 94 	sw (sp+148),r16
 2003268:	ba 00 b0 00 	mv r22,r16
 200326c:	ba 00 d8 00 	mv fp,r16
 2003270:	46 0b fb cc 	be r16,r11,20021a0 <_vfprintf_r+0x2d4>
 2003274:	2b 81 00 70 	lw r1,(sp+112)
 2003278:	36 02 00 01 	addi r2,r16,1
 200327c:	f8 00 0c 57 	calli 20063d8 <_malloc_r>
 2003280:	5b 81 00 94 	sw (sp+148),r1
 2003284:	44 20 01 52 	be r1,r0,20037cc <_vfprintf_r+0x1900>
 2003288:	34 03 00 08 	mvi r3,8
 200328c:	b9 60 10 00 	mv r2,r11
 2003290:	b9 e0 08 00 	mv r1,r15
 2003294:	f8 00 0e ae 	calli 2006d4c <memset>
 2003298:	2b 81 00 70 	lw r1,(sp+112)
 200329c:	2b 82 00 94 	lw r2,(sp+148)
 20032a0:	b9 e0 28 00 	mv r5,r15
 20032a4:	37 83 06 e4 	addi r3,sp,1764
 20032a8:	ba 00 20 00 	mv r4,r16
 20032ac:	f8 00 01 cd 	calli 20039e0 <_wcsrtombs_r>
 20032b0:	5e 01 01 af 	bne r16,r1,200396c <_vfprintf_r+0x1aa0>
 20032b4:	2b 82 00 94 	lw r2,(sp+148)
 20032b8:	ba 00 d8 00 	mv fp,r16
 20032bc:	b4 50 08 00 	add r1,r2,r16
 20032c0:	30 2b 00 00 	sb (r1+0),r11
 20032c4:	4e 00 00 02 	bge r16,r0,20032cc <_vfprintf_r+0x1400>
 20032c8:	b9 60 d8 00 	mv fp,r11
 20032cc:	2b 95 00 94 	lw r21,(sp+148)
 20032d0:	34 16 00 00 	mvi r22,0
 20032d4:	e3 ff fb b3 	bi 20021a0 <_vfprintf_r+0x2d4>
 20032d8:	29 81 00 00 	lw r1,(r12+0)
 20032dc:	35 82 00 08 	addi r2,r12,8
 20032e0:	5b 82 00 6c 	sw (sp+108),r2
 20032e4:	5b 81 00 8c 	sw (sp+140),r1
 20032e8:	29 8c 00 04 	lw r12,(r12+4)
 20032ec:	5b 8c 00 90 	sw (sp+144),r12
 20032f0:	e3 ff fe 61 	bi 2002c74 <_vfprintf_r+0xda8>
 20032f4:	59 a2 00 04 	sw (r13+4),r2
 20032f8:	2b 81 06 c0 	lw r1,(sp+1728)
 20032fc:	59 b5 00 00 	sw (r13+0),r21
 2003300:	b4 22 08 00 	add r1,r1,r2
 2003304:	2b 82 06 bc 	lw r2,(sp+1724)
 2003308:	5b 81 06 c0 	sw (sp+1728),r1
 200330c:	34 01 00 07 	mvi r1,7
 2003310:	34 42 00 01 	addi r2,r2,1
 2003314:	5b 82 06 bc 	sw (sp+1724),r2
 2003318:	48 41 00 a7 	bg r2,r1,20035b4 <_vfprintf_r+0x16e8>
 200331c:	35 a3 00 08 	addi r3,r13,8
 2003320:	2b 82 00 48 	lw r2,(sp+72)
 2003324:	34 01 00 01 	mvi r1,1
 2003328:	2b 8b 06 e8 	lw r11,(sp+1768)
 200332c:	58 61 00 04 	sw (r3+4),r1
 2003330:	2b 81 06 c0 	lw r1,(sp+1728)
 2003334:	58 62 00 00 	sw (r3+0),r2
 2003338:	2b 82 06 bc 	lw r2,(sp+1724)
 200333c:	34 21 00 01 	addi r1,r1,1
 2003340:	5b 81 06 c0 	sw (sp+1728),r1
 2003344:	34 42 00 01 	addi r2,r2,1
 2003348:	5b 82 06 bc 	sw (sp+1724),r2
 200334c:	34 01 00 07 	mvi r1,7
 2003350:	48 41 00 d8 	bg r2,r1,20036b0 <_vfprintf_r+0x17e4>
 2003354:	34 64 00 08 	addi r4,r3,8
 2003358:	2b 83 06 e8 	lw r3,(sp+1768)
 200335c:	2b 85 00 84 	lw r5,(sp+132)
 2003360:	b6 ab 08 00 	add r1,r21,r11
 2003364:	58 81 00 00 	sw (r4+0),r1
 2003368:	c8 a3 10 00 	sub r2,r5,r3
 200336c:	58 82 00 04 	sw (r4+4),r2
 2003370:	2b 85 06 c0 	lw r5,(sp+1728)
 2003374:	2b 81 00 84 	lw r1,(sp+132)
 2003378:	34 02 00 07 	mvi r2,7
 200337c:	c8 a3 18 00 	sub r3,r5,r3
 2003380:	b4 61 18 00 	add r3,r3,r1
 2003384:	2b 81 06 bc 	lw r1,(sp+1724)
 2003388:	5b 83 06 c0 	sw (sp+1728),r3
 200338c:	34 21 00 01 	addi r1,r1,1
 2003390:	5b 81 06 bc 	sw (sp+1724),r1
 2003394:	48 22 fd 29 	bg r1,r2,2002838 <_vfprintf_r+0x96c>
 2003398:	34 84 00 08 	addi r4,r4,8
 200339c:	e3 ff fb e5 	bi 2002330 <_vfprintf_r+0x464>
 20033a0:	bb 20 08 00 	mv r1,r25
 20033a4:	37 82 06 b8 	addi r2,sp,1720
 20033a8:	fb ff fa b2 	calli 2001e70 <__sprint>
 20033ac:	5c 20 fc 91 	bne r1,r0,20025f0 <_vfprintf_r+0x724>
 20033b0:	37 84 06 50 	addi r4,sp,1616
 20033b4:	e3 ff fc c3 	bi 20026c0 <_vfprintf_r+0x7f4>
 20033b8:	ba 80 90 00 	mv r18,r20
 20033bc:	e3 ff fb c5 	bi 20022d0 <_vfprintf_r+0x404>
 20033c0:	36 31 00 01 	addi r17,r17,1
 20033c4:	b9 80 10 00 	mv r2,r12
 20033c8:	3b 18 00 10 	ori r24,r24,0x10
 20033cc:	42 21 00 00 	lbu r1,(r17+0)
 20033d0:	b8 40 60 00 	mv r12,r2
 20033d4:	e3 ff fb 4c 	bi 2002104 <_vfprintf_r+0x238>
 20033d8:	34 12 00 06 	mvi r18,6
 20033dc:	e3 ff fe 1e 	bi 2002c54 <_vfprintf_r+0xd88>
 20033e0:	2b 81 00 8c 	lw r1,(sp+140)
 20033e4:	2b 82 00 90 	lw r2,(sp+144)
 20033e8:	f8 00 12 f9 	calli 2007fcc <isnan>
 20033ec:	b8 20 18 00 	mv r3,r1
 20033f0:	5c 2b 00 6a 	bne r1,r11,2003598 <_vfprintf_r+0x16cc>
 20033f4:	34 01 00 66 	mvi r1,102
 20033f8:	3b 18 01 00 	ori r24,r24,0x100
 20033fc:	ba 40 60 00 	mv r12,r18
 2003400:	34 04 00 03 	mvi r4,3
 2003404:	46 61 00 08 	be r19,r1,2003424 <_vfprintf_r+0x1558>
 2003408:	66 61 00 65 	cmpei r1,r19,101
 200340c:	66 62 00 45 	cmpei r2,r19,69
 2003410:	36 4c 00 01 	addi r12,r18,1
 2003414:	b8 22 08 00 	or r1,r1,r2
 2003418:	34 04 00 02 	mvi r4,2
 200341c:	5c 23 00 02 	bne r1,r3,2003424 <_vfprintf_r+0x1558>
 2003420:	ba 40 60 00 	mv r12,r18
 2003424:	2b 81 00 8c 	lw r1,(sp+140)
 2003428:	48 01 01 02 	bg r0,r1,2003830 <_vfprintf_r+0x1964>
 200342c:	2b 8f 00 90 	lw r15,(sp+144)
 2003430:	b8 20 70 00 	mv r14,r1
 2003434:	34 16 00 00 	mvi r22,0
 2003438:	2b 81 00 70 	lw r1,(sp+112)
 200343c:	b9 c0 10 00 	mv r2,r14
 2003440:	b9 e0 18 00 	mv r3,r15
 2003444:	b9 80 28 00 	mv r5,r12
 2003448:	37 86 06 e8 	addi r6,sp,1768
 200344c:	37 87 06 e0 	addi r7,sp,1760
 2003450:	37 88 06 dc 	addi r8,sp,1756
 2003454:	f8 00 03 c2 	calli 200435c <_dtoa_r>
 2003458:	b8 20 a8 00 	mv r21,r1
 200345c:	7e 62 00 67 	cmpnei r2,r19,103
 2003460:	7e 61 00 47 	cmpnei r1,r19,71
 2003464:	a0 41 10 00 	and r2,r2,r1
 2003468:	5c 40 00 98 	bne r2,r0,20036c8 <_vfprintf_r+0x17fc>
 200346c:	23 01 00 01 	andi r1,r24,0x1
 2003470:	5c 22 00 96 	bne r1,r2,20036c8 <_vfprintf_r+0x17fc>
 2003474:	2b 82 06 dc 	lw r2,(sp+1756)
 2003478:	66 63 00 67 	cmpei r3,r19,103
 200347c:	66 61 00 47 	cmpei r1,r19,71
 2003480:	c8 55 10 00 	sub r2,r2,r21
 2003484:	5b 82 00 84 	sw (sp+132),r2
 2003488:	b8 61 08 00 	or r1,r3,r1
 200348c:	44 20 00 b7 	be r1,r0,2003768 <_vfprintf_r+0x189c>
 2003490:	2b 82 06 e8 	lw r2,(sp+1768)
 2003494:	34 01 ff fd 	mvi r1,-3
 2003498:	48 22 00 03 	bg r1,r2,20034a4 <_vfprintf_r+0x15d8>
 200349c:	34 13 00 67 	mvi r19,103
 20034a0:	4e 42 00 d2 	bge r18,r2,20037e8 <_vfprintf_r+0x191c>
 20034a4:	34 13 00 45 	mvi r19,69
 20034a8:	ba 60 08 00 	mv r1,r19
 20034ac:	5c 60 01 1a 	bne r3,r0,2003914 <_vfprintf_r+0x1a48>
 20034b0:	34 4b ff ff 	addi r11,r2,-1
 20034b4:	33 81 06 d4 	sb (sp+1748),r1
 20034b8:	5b 8b 06 e8 	sw (sp+1768),r11
 20034bc:	4d 60 00 e3 	bge r11,r0,2003848 <_vfprintf_r+0x197c>
 20034c0:	34 01 00 2d 	mvi r1,45
 20034c4:	33 81 06 d5 	sb (sp+1749),r1
 20034c8:	c8 0b 58 00 	sub r11,r0,r11
 20034cc:	34 01 00 09 	mvi r1,9
 20034d0:	4c 2b 00 e1 	bge r1,r11,2003854 <_vfprintf_r+0x1988>
 20034d4:	37 8e 06 b8 	addi r14,sp,1720
 20034d8:	b8 20 78 00 	mv r15,r1
 20034dc:	b9 c0 60 00 	mv r12,r14
 20034e0:	b9 60 08 00 	mv r1,r11
 20034e4:	34 02 00 0a 	mvi r2,10
 20034e8:	f8 00 18 a1 	calli 200976c <__modsi3>
 20034ec:	34 21 00 30 	addi r1,r1,48
 20034f0:	35 8c ff ff 	addi r12,r12,-1
 20034f4:	31 81 00 00 	sb (r12+0),r1
 20034f8:	34 02 00 0a 	mvi r2,10
 20034fc:	b9 60 08 00 	mv r1,r11
 2003500:	f8 00 18 6d 	calli 20096b4 <__divsi3>
 2003504:	b8 20 58 00 	mv r11,r1
 2003508:	48 2f ff f6 	bg r1,r15,20034e0 <_vfprintf_r+0x1614>
 200350c:	34 21 00 30 	addi r1,r1,48
 2003510:	20 21 00 ff 	andi r1,r1,0xff
 2003514:	31 81 ff ff 	sb (r12+-1),r1
 2003518:	35 83 ff ff 	addi r3,r12,-1
 200351c:	37 82 06 d6 	addi r2,sp,1750
 2003520:	55 c3 00 18 	bgu r14,r3,2003580 <_vfprintf_r+0x16b4>
 2003524:	37 81 06 d4 	addi r1,sp,1748
 2003528:	c8 41 08 00 	sub r1,r2,r1
 200352c:	2b 82 00 84 	lw r2,(sp+132)
 2003530:	5b 81 00 80 	sw (sp+128),r1
 2003534:	b4 22 80 00 	add r16,r1,r2
 2003538:	34 01 00 01 	mvi r1,1
 200353c:	48 41 00 34 	bg r2,r1,200360c <_vfprintf_r+0x1740>
 2003540:	a3 01 08 00 	and r1,r24,r1
 2003544:	5c 20 00 32 	bne r1,r0,200360c <_vfprintf_r+0x1740>
 2003548:	5e c0 00 81 	bne r22,r0,200374c <_vfprintf_r+0x1880>
 200354c:	ba 00 d8 00 	mv fp,r16
 2003550:	4e 16 00 02 	bge r16,r22,2003558 <_vfprintf_r+0x168c>
 2003554:	ba c0 d8 00 	mv fp,r22
 2003558:	34 16 00 00 	mvi r22,0
 200355c:	2b 8c 00 6c 	lw r12,(sp+108)
 2003560:	5b 96 00 94 	sw (sp+148),r22
 2003564:	e3 ff fb 0f 	bi 20021a0 <_vfprintf_r+0x2d4>
 2003568:	2b 81 00 78 	lw r1,(sp+120)
 200356c:	c8 01 08 00 	sub r1,r0,r1
 2003570:	5b 81 00 78 	sw (sp+120),r1
 2003574:	e3 ff fe 25 	bi 2002e08 <_vfprintf_r+0xf3c>
 2003578:	34 12 00 01 	mvi r18,1
 200357c:	e3 ff fd b6 	bi 2002c54 <_vfprintf_r+0xd88>
 2003580:	30 41 00 00 	sb (r2+0),r1
 2003584:	34 63 00 01 	addi r3,r3,1
 2003588:	34 42 00 01 	addi r2,r2,1
 200358c:	50 6e ff e6 	bgeu r3,r14,2003524 <_vfprintf_r+0x1658>
 2003590:	40 61 00 00 	lbu r1,(r3+0)
 2003594:	e3 ff ff fb 	bi 2003580 <_vfprintf_r+0x16b4>
 2003598:	34 10 00 03 	mvi r16,3
 200359c:	b9 60 b0 00 	mv r22,r11
 20035a0:	2b 8c 00 6c 	lw r12,(sp+108)
 20035a4:	2b 95 00 5c 	lw r21,(sp+92)
 20035a8:	5b 8b 00 94 	sw (sp+148),r11
 20035ac:	ba 00 d8 00 	mv fp,r16
 20035b0:	e3 ff fa fc 	bi 20021a0 <_vfprintf_r+0x2d4>
 20035b4:	bb 20 08 00 	mv r1,r25
 20035b8:	37 82 06 b8 	addi r2,sp,1720
 20035bc:	fb ff fa 2d 	calli 2001e70 <__sprint>
 20035c0:	5c 20 fc 0c 	bne r1,r0,20025f0 <_vfprintf_r+0x724>
 20035c4:	37 83 06 50 	addi r3,sp,1616
 20035c8:	e3 ff ff 56 	bi 2003320 <_vfprintf_r+0x1454>
 20035cc:	bb 20 08 00 	mv r1,r25
 20035d0:	37 82 06 b8 	addi r2,sp,1720
 20035d4:	fb ff fa 27 	calli 2001e70 <__sprint>
 20035d8:	5c 20 fc 06 	bne r1,r0,20025f0 <_vfprintf_r+0x724>
 20035dc:	37 84 06 50 	addi r4,sp,1616
 20035e0:	e3 ff fe b0 	bi 20030a0 <_vfprintf_r+0x11d4>
 20035e4:	bb 20 08 00 	mv r1,r25
 20035e8:	37 82 06 b8 	addi r2,sp,1720
 20035ec:	fb ff fa 21 	calli 2001e70 <__sprint>
 20035f0:	5c 20 fc 00 	bne r1,r0,20025f0 <_vfprintf_r+0x724>
 20035f4:	37 84 06 50 	addi r4,sp,1616
 20035f8:	e3 ff fd 31 	bi 2002abc <_vfprintf_r+0xbf0>
 20035fc:	ba a0 08 00 	mv r1,r21
 2003600:	fb ff f9 fe 	calli 2001df8 <strlen>
 2003604:	b8 20 80 00 	mv r16,r1
 2003608:	e3 ff fd c3 	bi 2002d14 <_vfprintf_r+0xe48>
 200360c:	36 10 00 01 	addi r16,r16,1
 2003610:	e3 ff ff ce 	bi 2003548 <_vfprintf_r+0x167c>
 2003614:	bb 20 08 00 	mv r1,r25
 2003618:	b9 c0 10 00 	mv r2,r14
 200361c:	fb ff fa 15 	calli 2001e70 <__sprint>
 2003620:	5c 20 fb f4 	bne r1,r0,20025f0 <_vfprintf_r+0x724>
 2003624:	37 84 06 50 	addi r4,sp,1616
 2003628:	e3 ff fe b2 	bi 20030f0 <_vfprintf_r+0x1224>
 200362c:	bb 20 08 00 	mv r1,r25
 2003630:	b9 c0 10 00 	mv r2,r14
 2003634:	fb ff fa 0f 	calli 2001e70 <__sprint>
 2003638:	5c 20 fb ee 	bne r1,r0,20025f0 <_vfprintf_r+0x724>
 200363c:	37 84 06 50 	addi r4,sp,1616
 2003640:	e3 ff fd 43 	bi 2002b4c <_vfprintf_r+0xc80>
 2003644:	2b 81 06 c0 	lw r1,(sp+1728)
 2003648:	5c 20 00 3c 	bne r1,r0,2003738 <_vfprintf_r+0x186c>
 200364c:	34 01 00 00 	mvi r1,0
 2003650:	5b 81 06 bc 	sw (sp+1724),r1
 2003654:	e3 ff fb ec 	bi 2002604 <_vfprintf_r+0x738>
 2003658:	bb 20 08 00 	mv r1,r25
 200365c:	37 82 06 b8 	addi r2,sp,1720
 2003660:	fb ff fa 04 	calli 2001e70 <__sprint>
 2003664:	5c 20 fb e3 	bne r1,r0,20025f0 <_vfprintf_r+0x724>
 2003668:	37 84 06 50 	addi r4,sp,1616
 200366c:	e3 ff fc 27 	bi 2002708 <_vfprintf_r+0x83c>
 2003670:	2b 97 00 4c 	lw r23,(sp+76)
 2003674:	e3 ff fa e7 	bi 2002210 <_vfprintf_r+0x344>
 2003678:	2b 95 00 54 	lw r21,(sp+84)
 200367c:	34 01 00 2d 	mvi r1,45
 2003680:	33 81 06 ef 	sb (sp+1775),r1
 2003684:	34 10 00 03 	mvi r16,3
 2003688:	34 1b 00 04 	mvi fp,4
 200368c:	34 16 00 00 	mvi r22,0
 2003690:	5b 96 00 94 	sw (sp+148),r22
 2003694:	e3 ff fa c7 	bi 20021b0 <_vfprintf_r+0x2e4>
 2003698:	2b 97 00 4c 	lw r23,(sp+76)
 200369c:	e3 ff fb 3d 	bi 2002390 <_vfprintf_r+0x4c4>
 20036a0:	34 10 00 06 	mvi r16,6
 20036a4:	2b 95 00 60 	lw r21,(sp+96)
 20036a8:	ba 00 d8 00 	mv fp,r16
 20036ac:	e3 ff fb b3 	bi 2002578 <_vfprintf_r+0x6ac>
 20036b0:	bb 20 08 00 	mv r1,r25
 20036b4:	37 82 06 b8 	addi r2,sp,1720
 20036b8:	fb ff f9 ee 	calli 2001e70 <__sprint>
 20036bc:	5c 20 fb cd 	bne r1,r0,20025f0 <_vfprintf_r+0x724>
 20036c0:	37 84 06 50 	addi r4,sp,1616
 20036c4:	e3 ff ff 25 	bi 2003358 <_vfprintf_r+0x148c>
 20036c8:	34 01 00 66 	mvi r1,102
 20036cc:	b6 ac 58 00 	add r11,r21,r12
 20036d0:	46 61 00 6f 	be r19,r1,200388c <_vfprintf_r+0x19c0>
 20036d4:	34 03 00 00 	mvi r3,0
 20036d8:	b9 c0 08 00 	mv r1,r14
 20036dc:	b9 e0 10 00 	mv r2,r15
 20036e0:	b8 60 20 00 	mv r4,r3
 20036e4:	f8 00 16 9e 	calli 200915c <__eqdf2>
 20036e8:	44 20 00 36 	be r1,r0,20037c0 <_vfprintf_r+0x18f4>
 20036ec:	2b 82 06 dc 	lw r2,(sp+1756)
 20036f0:	b8 40 20 00 	mv r4,r2
 20036f4:	50 4b ff 61 	bgeu r2,r11,2003478 <_vfprintf_r+0x15ac>
 20036f8:	34 01 00 30 	mvi r1,48
 20036fc:	30 81 00 00 	sb (r4+0),r1
 2003700:	34 84 00 01 	addi r4,r4,1
 2003704:	5b 84 06 dc 	sw (sp+1756),r4
 2003708:	55 64 ff fc 	bgu r11,r4,20036f8 <_vfprintf_r+0x182c>
 200370c:	b8 80 10 00 	mv r2,r4
 2003710:	e3 ff ff 5a 	bi 2003478 <_vfprintf_r+0x15ac>
 2003714:	ba 80 90 00 	mv r18,r20
 2003718:	e3 ff fb 5a 	bi 2002480 <_vfprintf_r+0x5b4>
 200371c:	ba 40 d8 00 	mv fp,r18
 2003720:	4e 40 00 02 	bge r18,r0,2003728 <_vfprintf_r+0x185c>
 2003724:	b9 60 d8 00 	mv fp,r11
 2003728:	34 16 00 00 	mvi r22,0
 200372c:	ba 40 80 00 	mv r16,r18
 2003730:	5b 96 00 94 	sw (sp+148),r22
 2003734:	e3 ff fa 9b 	bi 20021a0 <_vfprintf_r+0x2d4>
 2003738:	bb 20 08 00 	mv r1,r25
 200373c:	37 82 06 b8 	addi r2,sp,1720
 2003740:	fb ff f9 cc 	calli 2001e70 <__sprint>
 2003744:	5c 20 fb b0 	bne r1,r0,2002604 <_vfprintf_r+0x738>
 2003748:	e3 ff ff c1 	bi 200364c <_vfprintf_r+0x1780>
 200374c:	34 01 00 2d 	mvi r1,45
 2003750:	33 81 06 ef 	sb (sp+1775),r1
 2003754:	ba 00 08 00 	mv r1,r16
 2003758:	4e 00 00 02 	bge r16,r0,2003760 <_vfprintf_r+0x1894>
 200375c:	34 01 00 00 	mvi r1,0
 2003760:	34 3b 00 01 	addi fp,r1,1
 2003764:	e3 ff ff ca 	bi 200368c <_vfprintf_r+0x17c0>
 2003768:	34 01 00 65 	mvi r1,101
 200376c:	4a 61 00 1c 	bg r19,r1,20037dc <_vfprintf_r+0x1910>
 2003770:	2b 82 06 e8 	lw r2,(sp+1768)
 2003774:	22 61 00 ff 	andi r1,r19,0xff
 2003778:	e3 ff ff 4e 	bi 20034b0 <_vfprintf_r+0x15e4>
 200377c:	2b 81 00 70 	lw r1,(sp+112)
 2003780:	34 02 00 00 	mvi r2,0
 2003784:	37 83 06 e4 	addi r3,sp,1764
 2003788:	b8 40 20 00 	mv r4,r2
 200378c:	b9 e0 28 00 	mv r5,r15
 2003790:	f8 00 00 94 	calli 20039e0 <_wcsrtombs_r>
 2003794:	b8 20 80 00 	mv r16,r1
 2003798:	34 01 ff ff 	mvi r1,-1
 200379c:	46 01 00 0c 	be r16,r1,20037cc <_vfprintf_r+0x1900>
 20037a0:	5b 95 06 e4 	sw (sp+1764),r21
 20037a4:	e3 ff fe af 	bi 2003260 <_vfprintf_r+0x1394>
 20037a8:	bb 20 08 00 	mv r1,r25
 20037ac:	37 82 06 b8 	addi r2,sp,1720
 20037b0:	fb ff f9 b0 	calli 2001e70 <__sprint>
 20037b4:	5c 20 fb 8f 	bne r1,r0,20025f0 <_vfprintf_r+0x724>
 20037b8:	37 84 06 50 	addi r4,sp,1616
 20037bc:	e3 ff fc d1 	bi 2002b00 <_vfprintf_r+0xc34>
 20037c0:	5b 8b 06 dc 	sw (sp+1756),r11
 20037c4:	b9 60 10 00 	mv r2,r11
 20037c8:	e3 ff ff 2c 	bi 2003478 <_vfprintf_r+0x15ac>
 20037cc:	2f 21 00 0c 	lhu r1,(r25+12)
 20037d0:	38 21 00 40 	ori r1,r1,0x40
 20037d4:	0f 21 00 0c 	sh (r25+12),r1
 20037d8:	e3 ff fb 8b 	bi 2002604 <_vfprintf_r+0x738>
 20037dc:	34 01 00 66 	mvi r1,102
 20037e0:	46 61 00 23 	be r19,r1,200386c <_vfprintf_r+0x19a0>
 20037e4:	2b 82 06 e8 	lw r2,(sp+1768)
 20037e8:	2b 85 00 84 	lw r5,(sp+132)
 20037ec:	48 a2 00 2e 	bg r5,r2,20038a4 <_vfprintf_r+0x19d8>
 20037f0:	23 01 00 01 	andi r1,r24,0x1
 20037f4:	7c 21 00 00 	cmpnei r1,r1,0
 20037f8:	b4 41 80 00 	add r16,r2,r1
 20037fc:	e3 ff ff 53 	bi 2003548 <_vfprintf_r+0x167c>
 2003800:	bb 20 08 00 	mv r1,r25
 2003804:	37 82 06 b8 	addi r2,sp,1720
 2003808:	fb ff f9 9a 	calli 2001e70 <__sprint>
 200380c:	5c 20 fb 79 	bne r1,r0,20025f0 <_vfprintf_r+0x724>
 2003810:	37 84 06 50 	addi r4,sp,1616
 2003814:	e3 ff fe 44 	bi 2003124 <_vfprintf_r+0x1258>
 2003818:	bb 20 08 00 	mv r1,r25
 200381c:	37 82 06 b8 	addi r2,sp,1720
 2003820:	fb ff f9 94 	calli 2001e70 <__sprint>
 2003824:	5c 20 fb 73 	bne r1,r0,20025f0 <_vfprintf_r+0x724>
 2003828:	37 84 06 50 	addi r4,sp,1616
 200382c:	e3 ff fc d5 	bi 2002b80 <_vfprintf_r+0xcb4>
 2003830:	2b 85 00 8c 	lw r5,(sp+140)
 2003834:	2b 81 00 58 	lw r1,(sp+88)
 2003838:	2b 8f 00 90 	lw r15,(sp+144)
 200383c:	34 16 00 2d 	mvi r22,45
 2003840:	98 a1 70 00 	xor r14,r5,r1
 2003844:	e3 ff fe fd 	bi 2003438 <_vfprintf_r+0x156c>
 2003848:	34 01 00 2b 	mvi r1,43
 200384c:	33 81 06 d5 	sb (sp+1749),r1
 2003850:	e3 ff ff 1f 	bi 20034cc <_vfprintf_r+0x1600>
 2003854:	35 62 00 30 	addi r2,r11,48
 2003858:	34 01 00 30 	mvi r1,48
 200385c:	33 82 06 d7 	sb (sp+1751),r2
 2003860:	33 81 06 d6 	sb (sp+1750),r1
 2003864:	37 82 06 d8 	addi r2,sp,1752
 2003868:	e3 ff ff 2f 	bi 2003524 <_vfprintf_r+0x1658>
 200386c:	2b 90 06 e8 	lw r16,(sp+1768)
 2003870:	4c 10 00 39 	bge r0,r16,2003954 <_vfprintf_r+0x1a88>
 2003874:	5e 40 00 03 	bne r18,r0,2003880 <_vfprintf_r+0x19b4>
 2003878:	23 01 00 01 	andi r1,r24,0x1
 200387c:	44 32 ff 33 	be r1,r18,2003548 <_vfprintf_r+0x167c>
 2003880:	36 01 00 01 	addi r1,r16,1
 2003884:	b4 32 80 00 	add r16,r1,r18
 2003888:	e3 ff ff 30 	bi 2003548 <_vfprintf_r+0x167c>
 200388c:	42 a2 00 00 	lbu r2,(r21+0)
 2003890:	34 01 00 30 	mvi r1,48
 2003894:	44 41 00 16 	be r2,r1,20038ec <_vfprintf_r+0x1a20>
 2003898:	2b 82 06 e8 	lw r2,(sp+1768)
 200389c:	b5 62 58 00 	add r11,r11,r2
 20038a0:	e3 ff ff 8d 	bi 20036d4 <_vfprintf_r+0x1808>
 20038a4:	34 01 00 02 	mvi r1,2
 20038a8:	c8 22 08 00 	sub r1,r1,r2
 20038ac:	4c 02 00 02 	bge r0,r2,20038b4 <_vfprintf_r+0x19e8>
 20038b0:	34 01 00 01 	mvi r1,1
 20038b4:	2b 82 00 84 	lw r2,(sp+132)
 20038b8:	b4 22 80 00 	add r16,r1,r2
 20038bc:	e3 ff ff 23 	bi 2003548 <_vfprintf_r+0x167c>
 20038c0:	ba 40 d8 00 	mv fp,r18
 20038c4:	4e 41 ff 99 	bge r18,r1,2003728 <_vfprintf_r+0x185c>
 20038c8:	b8 20 d8 00 	mv fp,r1
 20038cc:	e3 ff ff 97 	bi 2003728 <_vfprintf_r+0x185c>
 20038d0:	ba 80 90 00 	mv r18,r20
 20038d4:	e3 ff fb a2 	bi 200275c <_vfprintf_r+0x890>
 20038d8:	ba 80 90 00 	mv r18,r20
 20038dc:	e3 ff fc 1a 	bi 2002944 <_vfprintf_r+0xa78>
 20038e0:	34 01 ff ff 	mvi r1,-1
 20038e4:	5b 81 00 74 	sw (sp+116),r1
 20038e8:	e3 ff fc 55 	bi 2002a3c <_vfprintf_r+0xb70>
 20038ec:	34 03 00 00 	mvi r3,0
 20038f0:	b9 c0 08 00 	mv r1,r14
 20038f4:	b9 e0 10 00 	mv r2,r15
 20038f8:	b8 60 20 00 	mv r4,r3
 20038fc:	f8 00 16 3b 	calli 20091e8 <__nedf2>
 2003900:	44 20 ff e6 	be r1,r0,2003898 <_vfprintf_r+0x19cc>
 2003904:	34 01 00 01 	mvi r1,1
 2003908:	c8 2c 08 00 	sub r1,r1,r12
 200390c:	5b 81 06 e8 	sw (sp+1768),r1
 2003910:	e3 ff ff e2 	bi 2003898 <_vfprintf_r+0x19cc>
 2003914:	34 13 00 65 	mvi r19,101
 2003918:	ba 60 08 00 	mv r1,r19
 200391c:	e3 ff fe e5 	bi 20034b0 <_vfprintf_r+0x15e4>
 2003920:	29 92 00 00 	lw r18,(r12+0)
 2003924:	35 82 00 04 	addi r2,r12,4
 2003928:	48 12 00 07 	bg r0,r18,2003944 <_vfprintf_r+0x1a78>
 200392c:	42 21 00 00 	lbu r1,(r17+0)
 2003930:	e3 ff fd 2d 	bi 2002de4 <_vfprintf_r+0xf18>
 2003934:	ba 80 90 00 	mv r18,r20
 2003938:	e3 ff fd f0 	bi 20030f8 <_vfprintf_r+0x122c>
 200393c:	ba 80 90 00 	mv r18,r20
 2003940:	e3 ff fc 85 	bi 2002b54 <_vfprintf_r+0xc88>
 2003944:	42 21 00 00 	lbu r1,(r17+0)
 2003948:	34 12 ff ff 	mvi r18,-1
 200394c:	b8 40 60 00 	mv r12,r2
 2003950:	e3 ff f9 ed 	bi 2002104 <_vfprintf_r+0x238>
 2003954:	5e 40 00 04 	bne r18,r0,2003964 <_vfprintf_r+0x1a98>
 2003958:	23 01 00 01 	andi r1,r24,0x1
 200395c:	34 10 00 01 	mvi r16,1
 2003960:	44 32 fe fa 	be r1,r18,2003548 <_vfprintf_r+0x167c>
 2003964:	36 50 00 02 	addi r16,r18,2
 2003968:	e3 ff fe f8 	bi 2003548 <_vfprintf_r+0x167c>
 200396c:	2f 21 00 0c 	lhu r1,(r25+12)
 2003970:	38 21 00 40 	ori r1,r1,0x40
 2003974:	0f 21 00 0c 	sh (r25+12),r1
 2003978:	e3 ff fb 20 	bi 20025f8 <_vfprintf_r+0x72c>

0200397c <_wcrtomb_r>:
 200397c:	37 9c ff e8 	addi sp,sp,-24
 2003980:	5b 8b 00 0c 	sw (sp+12),r11
 2003984:	5b 8c 00 08 	sw (sp+8),r12
 2003988:	5b 9d 00 04 	sw (sp+4),ra
 200398c:	b8 20 60 00 	mv r12,r1
 2003990:	b8 80 58 00 	mv r11,r4
 2003994:	44 40 00 0f 	be r2,r0,20039d0 <_wcrtomb_r+0x54>
 2003998:	f8 00 00 70 	calli 2003b58 <_wctomb_r>
 200399c:	b8 20 18 00 	mv r3,r1
 20039a0:	34 01 ff ff 	mvi r1,-1
 20039a4:	5c 61 00 05 	bne r3,r1,20039b8 <_wcrtomb_r+0x3c>
 20039a8:	34 01 00 00 	mvi r1,0
 20039ac:	59 61 00 00 	sw (r11+0),r1
 20039b0:	34 02 00 8a 	mvi r2,138
 20039b4:	59 82 00 00 	sw (r12+0),r2
 20039b8:	b8 60 08 00 	mv r1,r3
 20039bc:	2b 9d 00 04 	lw ra,(sp+4)
 20039c0:	2b 8b 00 0c 	lw r11,(sp+12)
 20039c4:	2b 8c 00 08 	lw r12,(sp+8)
 20039c8:	37 9c 00 18 	addi sp,sp,24
 20039cc:	c3 a0 00 00 	ret
 20039d0:	b8 40 18 00 	mv r3,r2
 20039d4:	37 82 00 10 	addi r2,sp,16
 20039d8:	f8 00 00 60 	calli 2003b58 <_wctomb_r>
 20039dc:	e3 ff ff f0 	bi 200399c <_wcrtomb_r+0x20>

020039e0 <_wcsrtombs_r>:
 20039e0:	37 9c ff c0 	addi sp,sp,-64
 20039e4:	5b 8b 00 34 	sw (sp+52),r11
 20039e8:	5b 8c 00 30 	sw (sp+48),r12
 20039ec:	5b 8d 00 2c 	sw (sp+44),r13
 20039f0:	5b 8e 00 28 	sw (sp+40),r14
 20039f4:	5b 8f 00 24 	sw (sp+36),r15
 20039f8:	5b 90 00 20 	sw (sp+32),r16
 20039fc:	5b 91 00 1c 	sw (sp+28),r17
 2003a00:	5b 92 00 18 	sw (sp+24),r18
 2003a04:	5b 93 00 14 	sw (sp+20),r19
 2003a08:	5b 94 00 10 	sw (sp+16),r20
 2003a0c:	5b 95 00 0c 	sw (sp+12),r21
 2003a10:	5b 96 00 08 	sw (sp+8),r22
 2003a14:	5b 9d 00 04 	sw (sp+4),ra
 2003a18:	b8 40 98 00 	mv r19,r2
 2003a1c:	b8 20 a8 00 	mv r21,r1
 2003a20:	b8 60 a0 00 	mv r20,r3
 2003a24:	b8 80 88 00 	mv r17,r4
 2003a28:	b8 a0 60 00 	mv r12,r5
 2003a2c:	44 40 00 48 	be r2,r0,2003b4c <_wcsrtombs_r+0x16c>
 2003a30:	28 61 00 00 	lw r1,(r3+0)
 2003a34:	b8 80 68 00 	mv r13,r4
 2003a38:	b8 20 80 00 	mv r16,r1
 2003a3c:	44 80 00 28 	be r4,r0,2003adc <_wcsrtombs_r+0xfc>
 2003a40:	ba 60 58 00 	mv r11,r19
 2003a44:	34 0d 00 00 	mvi r13,0
 2003a48:	37 92 00 38 	addi r18,sp,56
 2003a4c:	34 16 ff ff 	mvi r22,-1
 2003a50:	2a 03 00 00 	lw r3,(r16+0)
 2003a54:	b9 80 20 00 	mv r4,r12
 2003a58:	ba a0 08 00 	mv r1,r21
 2003a5c:	ba 40 10 00 	mv r2,r18
 2003a60:	29 8f 00 00 	lw r15,(r12+0)
 2003a64:	29 8e 00 04 	lw r14,(r12+4)
 2003a68:	fb ff ff c5 	calli 200397c <_wcrtomb_r>
 2003a6c:	b8 20 20 00 	mv r4,r1
 2003a70:	44 36 00 2b 	be r1,r22,2003b1c <_wcsrtombs_r+0x13c>
 2003a74:	ca 21 08 00 	sub r1,r17,r1
 2003a78:	f0 2d 08 00 	cmpgeu r1,r1,r13
 2003a7c:	f6 24 10 00 	cmpgu r2,r17,r4
 2003a80:	a0 22 08 00 	and r1,r1,r2
 2003a84:	44 20 00 14 	be r1,r0,2003ad4 <_wcsrtombs_r+0xf4>
 2003a88:	b5 a4 68 00 	add r13,r13,r4
 2003a8c:	46 60 00 0d 	be r19,r0,2003ac0 <_wcsrtombs_r+0xe0>
 2003a90:	4c 04 00 09 	bge r0,r4,2003ab4 <_wcsrtombs_r+0xd4>
 2003a94:	34 03 00 00 	mvi r3,0
 2003a98:	b6 43 08 00 	add r1,r18,r3
 2003a9c:	40 21 00 00 	lbu r1,(r1+0)
 2003aa0:	b5 63 10 00 	add r2,r11,r3
 2003aa4:	34 63 00 01 	addi r3,r3,1
 2003aa8:	30 41 00 00 	sb (r2+0),r1
 2003aac:	48 83 ff fb 	bg r4,r3,2003a98 <_wcsrtombs_r+0xb8>
 2003ab0:	b5 64 58 00 	add r11,r11,r4
 2003ab4:	2a 81 00 00 	lw r1,(r20+0)
 2003ab8:	34 21 00 04 	addi r1,r1,4
 2003abc:	5a 81 00 00 	sw (r20+0),r1
 2003ac0:	2a 01 00 00 	lw r1,(r16+0)
 2003ac4:	44 20 00 1c 	be r1,r0,2003b34 <_wcsrtombs_r+0x154>
 2003ac8:	51 b1 00 05 	bgeu r13,r17,2003adc <_wcsrtombs_r+0xfc>
 2003acc:	36 10 00 04 	addi r16,r16,4
 2003ad0:	e3 ff ff e0 	bi 2003a50 <_wcsrtombs_r+0x70>
 2003ad4:	59 8e 00 04 	sw (r12+4),r14
 2003ad8:	59 8f 00 00 	sw (r12+0),r15
 2003adc:	b9 a0 08 00 	mv r1,r13
 2003ae0:	2b 9d 00 04 	lw ra,(sp+4)
 2003ae4:	2b 8b 00 34 	lw r11,(sp+52)
 2003ae8:	2b 8c 00 30 	lw r12,(sp+48)
 2003aec:	2b 8d 00 2c 	lw r13,(sp+44)
 2003af0:	2b 8e 00 28 	lw r14,(sp+40)
 2003af4:	2b 8f 00 24 	lw r15,(sp+36)
 2003af8:	2b 90 00 20 	lw r16,(sp+32)
 2003afc:	2b 91 00 1c 	lw r17,(sp+28)
 2003b00:	2b 92 00 18 	lw r18,(sp+24)
 2003b04:	2b 93 00 14 	lw r19,(sp+20)
 2003b08:	2b 94 00 10 	lw r20,(sp+16)
 2003b0c:	2b 95 00 0c 	lw r21,(sp+12)
 2003b10:	2b 96 00 08 	lw r22,(sp+8)
 2003b14:	37 9c 00 40 	addi sp,sp,64
 2003b18:	c3 a0 00 00 	ret
 2003b1c:	34 01 00 8a 	mvi r1,138
 2003b20:	5a a1 00 00 	sw (r21+0),r1
 2003b24:	34 02 00 00 	mvi r2,0
 2003b28:	59 82 00 00 	sw (r12+0),r2
 2003b2c:	ba c0 68 00 	mv r13,r22
 2003b30:	e3 ff ff eb 	bi 2003adc <_wcsrtombs_r+0xfc>
 2003b34:	46 61 00 02 	be r19,r1,2003b3c <_wcsrtombs_r+0x15c>
 2003b38:	5a 81 00 00 	sw (r20+0),r1
 2003b3c:	34 01 00 00 	mvi r1,0
 2003b40:	59 81 00 00 	sw (r12+0),r1
 2003b44:	35 ad ff ff 	addi r13,r13,-1
 2003b48:	e3 ff ff e5 	bi 2003adc <_wcsrtombs_r+0xfc>
 2003b4c:	28 70 00 00 	lw r16,(r3+0)
 2003b50:	34 11 ff ff 	mvi r17,-1
 2003b54:	e3 ff ff bb 	bi 2003a40 <_wcsrtombs_r+0x60>

02003b58 <_wctomb_r>:
 2003b58:	37 9c ff ec 	addi sp,sp,-20
 2003b5c:	5b 8b 00 14 	sw (sp+20),r11
 2003b60:	5b 8c 00 10 	sw (sp+16),r12
 2003b64:	5b 8d 00 0c 	sw (sp+12),r13
 2003b68:	5b 8e 00 08 	sw (sp+8),r14
 2003b6c:	5b 9d 00 04 	sw (sp+4),ra
 2003b70:	78 01 02 00 	mvhi r1,0x200
 2003b74:	38 21 ae f4 	ori r1,r1,0xaef4
 2003b78:	34 0d 00 01 	mvi r13,1
 2003b7c:	b8 40 60 00 	mv r12,r2
 2003b80:	b8 60 58 00 	mv r11,r3
 2003b84:	b8 80 70 00 	mv r14,r4
 2003b88:	fb ff f8 9c 	calli 2001df8 <strlen>
 2003b8c:	51 a1 00 14 	bgeu r13,r1,2003bdc <_wctomb_r+0x84>
 2003b90:	78 01 02 00 	mvhi r1,0x200
 2003b94:	78 02 02 00 	mvhi r2,0x200
 2003b98:	38 21 ae f4 	ori r1,r1,0xaef4
 2003b9c:	38 42 a4 50 	ori r2,r2,0xa450
 2003ba0:	f8 00 11 9d 	calli 2008214 <strcmp>
 2003ba4:	5c 20 00 2e 	bne r1,r0,2003c5c <_wctomb_r+0x104>
 2003ba8:	45 81 00 43 	be r12,r1,2003cb4 <_wctomb_r+0x15c>
 2003bac:	34 01 00 7f 	mvi r1,127
 2003bb0:	49 61 00 16 	bg r11,r1,2003c08 <_wctomb_r+0xb0>
 2003bb4:	b9 a0 10 00 	mv r2,r13
 2003bb8:	b8 40 08 00 	mv r1,r2
 2003bbc:	31 8b 00 00 	sb (r12+0),r11
 2003bc0:	2b 9d 00 04 	lw ra,(sp+4)
 2003bc4:	2b 8b 00 14 	lw r11,(sp+20)
 2003bc8:	2b 8c 00 10 	lw r12,(sp+16)
 2003bcc:	2b 8d 00 0c 	lw r13,(sp+12)
 2003bd0:	2b 8e 00 08 	lw r14,(sp+8)
 2003bd4:	37 9c 00 14 	addi sp,sp,20
 2003bd8:	c3 a0 00 00 	ret
 2003bdc:	45 80 00 36 	be r12,r0,2003cb4 <_wctomb_r+0x15c>
 2003be0:	31 8b 00 00 	sb (r12+0),r11
 2003be4:	34 02 00 01 	mvi r2,1
 2003be8:	b8 40 08 00 	mv r1,r2
 2003bec:	2b 9d 00 04 	lw ra,(sp+4)
 2003bf0:	2b 8b 00 14 	lw r11,(sp+20)
 2003bf4:	2b 8c 00 10 	lw r12,(sp+16)
 2003bf8:	2b 8d 00 0c 	lw r13,(sp+12)
 2003bfc:	2b 8e 00 08 	lw r14,(sp+8)
 2003c00:	37 9c 00 14 	addi sp,sp,20
 2003c04:	c3 a0 00 00 	ret
 2003c08:	35 62 ff 80 	addi r2,r11,-128
 2003c0c:	34 01 07 7f 	mvi r1,1919
 2003c10:	54 41 00 32 	bgu r2,r1,2003cd8 <_wctomb_r+0x180>
 2003c14:	21 64 07 c0 	andi r4,r11,0x7c0
 2003c18:	21 63 00 3f 	andi r3,r11,0x3f
 2003c1c:	34 02 ff 80 	mvi r2,-128
 2003c20:	14 84 00 06 	sri r4,r4,6
 2003c24:	b8 62 18 00 	or r3,r3,r2
 2003c28:	34 01 ff c0 	mvi r1,-64
 2003c2c:	34 02 00 02 	mvi r2,2
 2003c30:	b8 81 20 00 	or r4,r4,r1
 2003c34:	b8 40 08 00 	mv r1,r2
 2003c38:	31 83 00 01 	sb (r12+1),r3
 2003c3c:	31 84 00 00 	sb (r12+0),r4
 2003c40:	2b 9d 00 04 	lw ra,(sp+4)
 2003c44:	2b 8b 00 14 	lw r11,(sp+20)
 2003c48:	2b 8c 00 10 	lw r12,(sp+16)
 2003c4c:	2b 8d 00 0c 	lw r13,(sp+12)
 2003c50:	2b 8e 00 08 	lw r14,(sp+8)
 2003c54:	37 9c 00 14 	addi sp,sp,20
 2003c58:	c3 a0 00 00 	ret
 2003c5c:	78 01 02 00 	mvhi r1,0x200
 2003c60:	78 02 02 00 	mvhi r2,0x200
 2003c64:	38 21 ae f4 	ori r1,r1,0xaef4
 2003c68:	38 42 a4 58 	ori r2,r2,0xa458
 2003c6c:	f8 00 11 6a 	calli 2008214 <strcmp>
 2003c70:	5c 20 00 7f 	bne r1,r0,2003e6c <_wctomb_r+0x314>
 2003c74:	45 81 00 10 	be r12,r1,2003cb4 <_wctomb_r+0x15c>
 2003c78:	15 61 00 08 	sri r1,r11,8
 2003c7c:	20 29 00 ff 	andi r9,r1,0xff
 2003c80:	45 20 ff d8 	be r9,r0,2003be0 <_wctomb_r+0x88>
 2003c84:	35 23 00 7f 	addi r3,r9,127
 2003c88:	35 24 00 20 	addi r4,r9,32
 2003c8c:	20 63 00 ff 	andi r3,r3,0xff
 2003c90:	20 84 00 ff 	andi r4,r4,0xff
 2003c94:	34 02 00 1e 	mvi r2,30
 2003c98:	34 01 00 0f 	mvi r1,15
 2003c9c:	f0 43 10 00 	cmpgeu r2,r2,r3
 2003ca0:	f0 24 08 00 	cmpgeu r1,r1,r4
 2003ca4:	b8 41 10 00 	or r2,r2,r1
 2003ca8:	5c 40 00 63 	bne r2,r0,2003e34 <_wctomb_r+0x2dc>
 2003cac:	34 02 ff ff 	mvi r2,-1
 2003cb0:	e3 ff ff ce 	bi 2003be8 <_wctomb_r+0x90>
 2003cb4:	34 02 00 00 	mvi r2,0
 2003cb8:	b8 40 08 00 	mv r1,r2
 2003cbc:	2b 9d 00 04 	lw ra,(sp+4)
 2003cc0:	2b 8b 00 14 	lw r11,(sp+20)
 2003cc4:	2b 8c 00 10 	lw r12,(sp+16)
 2003cc8:	2b 8d 00 0c 	lw r13,(sp+12)
 2003ccc:	2b 8e 00 08 	lw r14,(sp+8)
 2003cd0:	37 9c 00 14 	addi sp,sp,20
 2003cd4:	c3 a0 00 00 	ret
 2003cd8:	35 62 f8 00 	addi r2,r11,-2048
 2003cdc:	38 01 f7 ff 	mvu r1,0xf7ff
 2003ce0:	54 41 00 15 	bgu r2,r1,2003d34 <_wctomb_r+0x1dc>
 2003ce4:	78 01 ff ff 	mvhi r1,0xffff
 2003ce8:	38 21 28 00 	ori r1,r1,0x2800
 2003cec:	b5 61 08 00 	add r1,r11,r1
 2003cf0:	34 02 07 ff 	mvi r2,2047
 2003cf4:	50 41 ff ee 	bgeu r2,r1,2003cac <_wctomb_r+0x154>
 2003cf8:	21 63 f0 00 	andi r3,r11,0xf000
 2003cfc:	21 64 0f c0 	andi r4,r11,0xfc0
 2003d00:	14 63 00 0c 	sri r3,r3,12
 2003d04:	14 84 00 06 	sri r4,r4,6
 2003d08:	34 05 ff 80 	mvi r5,-128
 2003d0c:	21 62 00 3f 	andi r2,r11,0x3f
 2003d10:	34 01 ff e0 	mvi r1,-32
 2003d14:	b8 45 10 00 	or r2,r2,r5
 2003d18:	b8 61 18 00 	or r3,r3,r1
 2003d1c:	b8 85 20 00 	or r4,r4,r5
 2003d20:	31 82 00 02 	sb (r12+2),r2
 2003d24:	31 83 00 00 	sb (r12+0),r3
 2003d28:	31 84 00 01 	sb (r12+1),r4
 2003d2c:	34 02 00 03 	mvi r2,3
 2003d30:	e3 ff ff ae 	bi 2003be8 <_wctomb_r+0x90>
 2003d34:	78 02 ff ff 	mvhi r2,0xffff
 2003d38:	38 42 00 00 	ori r2,r2,0x0
 2003d3c:	78 01 00 1e 	mvhi r1,0x1e
 2003d40:	b5 62 10 00 	add r2,r11,r2
 2003d44:	38 21 ff ff 	ori r1,r1,0xffff
 2003d48:	54 41 00 18 	bgu r2,r1,2003da8 <_wctomb_r+0x250>
 2003d4c:	78 02 00 1c 	mvhi r2,0x1c
 2003d50:	78 03 00 03 	mvhi r3,0x3
 2003d54:	38 42 00 00 	ori r2,r2,0x0
 2003d58:	38 63 f0 00 	ori r3,r3,0xf000
 2003d5c:	a1 62 10 00 	and r2,r11,r2
 2003d60:	a1 63 18 00 	and r3,r11,r3
 2003d64:	21 66 0f c0 	andi r6,r11,0xfc0
 2003d68:	14 42 00 12 	sri r2,r2,18
 2003d6c:	14 63 00 0c 	sri r3,r3,12
 2003d70:	14 c6 00 06 	sri r6,r6,6
 2003d74:	34 04 ff 80 	mvi r4,-128
 2003d78:	21 65 00 3f 	andi r5,r11,0x3f
 2003d7c:	34 01 ff f0 	mvi r1,-16
 2003d80:	b8 41 10 00 	or r2,r2,r1
 2003d84:	b8 a4 28 00 	or r5,r5,r4
 2003d88:	b8 64 18 00 	or r3,r3,r4
 2003d8c:	b8 c4 30 00 	or r6,r6,r4
 2003d90:	31 82 00 00 	sb (r12+0),r2
 2003d94:	31 85 00 03 	sb (r12+3),r5
 2003d98:	31 83 00 01 	sb (r12+1),r3
 2003d9c:	31 86 00 02 	sb (r12+2),r6
 2003da0:	34 02 00 04 	mvi r2,4
 2003da4:	e3 ff ff 91 	bi 2003be8 <_wctomb_r+0x90>
 2003da8:	78 02 ff e0 	mvhi r2,0xffe0
 2003dac:	38 42 00 00 	ori r2,r2,0x0
 2003db0:	78 01 03 df 	mvhi r1,0x3df
 2003db4:	b5 62 10 00 	add r2,r11,r2
 2003db8:	38 21 ff ff 	ori r1,r1,0xffff
 2003dbc:	54 41 00 73 	bgu r2,r1,2003f88 <_wctomb_r+0x430>
 2003dc0:	78 03 03 00 	mvhi r3,0x300
 2003dc4:	78 04 00 fc 	mvhi r4,0xfc
 2003dc8:	78 05 00 03 	mvhi r5,0x3
 2003dcc:	38 63 00 00 	ori r3,r3,0x0
 2003dd0:	38 84 00 00 	ori r4,r4,0x0
 2003dd4:	38 a5 f0 00 	ori r5,r5,0xf000
 2003dd8:	a1 63 18 00 	and r3,r11,r3
 2003ddc:	a1 64 20 00 	and r4,r11,r4
 2003de0:	a1 65 28 00 	and r5,r11,r5
 2003de4:	21 67 0f c0 	andi r7,r11,0xfc0
 2003de8:	14 63 00 18 	sri r3,r3,24
 2003dec:	14 84 00 12 	sri r4,r4,18
 2003df0:	14 a5 00 0c 	sri r5,r5,12
 2003df4:	14 e7 00 06 	sri r7,r7,6
 2003df8:	34 02 ff 80 	mvi r2,-128
 2003dfc:	21 66 00 3f 	andi r6,r11,0x3f
 2003e00:	34 01 ff f8 	mvi r1,-8
 2003e04:	b8 c2 30 00 	or r6,r6,r2
 2003e08:	b8 82 20 00 	or r4,r4,r2
 2003e0c:	b8 a2 28 00 	or r5,r5,r2
 2003e10:	b8 e2 38 00 	or r7,r7,r2
 2003e14:	b8 61 18 00 	or r3,r3,r1
 2003e18:	31 86 00 04 	sb (r12+4),r6
 2003e1c:	31 83 00 00 	sb (r12+0),r3
 2003e20:	31 84 00 01 	sb (r12+1),r4
 2003e24:	31 85 00 02 	sb (r12+2),r5
 2003e28:	31 87 00 03 	sb (r12+3),r7
 2003e2c:	34 02 00 05 	mvi r2,5
 2003e30:	e3 ff ff 6e 	bi 2003be8 <_wctomb_r+0x90>
 2003e34:	21 65 00 ff 	andi r5,r11,0xff
 2003e38:	34 a3 ff c0 	addi r3,r5,-64
 2003e3c:	20 63 00 ff 	andi r3,r3,0xff
 2003e40:	18 a4 00 80 	xori r4,r5,0x80
 2003e44:	34 02 00 3e 	mvi r2,62
 2003e48:	34 01 00 7c 	mvi r1,124
 2003e4c:	f0 43 10 00 	cmpgeu r2,r2,r3
 2003e50:	f0 24 08 00 	cmpgeu r1,r1,r4
 2003e54:	b8 41 10 00 	or r2,r2,r1
 2003e58:	44 40 ff 95 	be r2,r0,2003cac <_wctomb_r+0x154>
 2003e5c:	31 85 00 01 	sb (r12+1),r5
 2003e60:	31 89 00 00 	sb (r12+0),r9
 2003e64:	34 02 00 02 	mvi r2,2
 2003e68:	e3 ff ff 60 	bi 2003be8 <_wctomb_r+0x90>
 2003e6c:	78 01 02 00 	mvhi r1,0x200
 2003e70:	78 02 02 00 	mvhi r2,0x200
 2003e74:	38 21 ae f4 	ori r1,r1,0xaef4
 2003e78:	38 42 a4 60 	ori r2,r2,0xa460
 2003e7c:	f8 00 10 e6 	calli 2008214 <strcmp>
 2003e80:	5c 20 00 11 	bne r1,r0,2003ec4 <_wctomb_r+0x36c>
 2003e84:	45 81 ff 8c 	be r12,r1,2003cb4 <_wctomb_r+0x15c>
 2003e88:	15 61 00 08 	sri r1,r11,8
 2003e8c:	20 29 00 ff 	andi r9,r1,0xff
 2003e90:	45 20 ff 54 	be r9,r0,2003be0 <_wctomb_r+0x88>
 2003e94:	35 21 00 5f 	addi r1,r9,95
 2003e98:	20 21 00 ff 	andi r1,r1,0xff
 2003e9c:	34 03 00 5d 	mvi r3,93
 2003ea0:	54 23 ff 83 	bgu r1,r3,2003cac <_wctomb_r+0x154>
 2003ea4:	21 62 00 ff 	andi r2,r11,0xff
 2003ea8:	34 41 00 5f 	addi r1,r2,95
 2003eac:	20 21 00 ff 	andi r1,r1,0xff
 2003eb0:	54 23 ff 7f 	bgu r1,r3,2003cac <_wctomb_r+0x154>
 2003eb4:	31 82 00 01 	sb (r12+1),r2
 2003eb8:	31 89 00 00 	sb (r12+0),r9
 2003ebc:	34 02 00 02 	mvi r2,2
